
AVRASM ver. 2.1.30  C:\Users\ragalia\Desktop\codevision\team_project\Debug\List\project.asm Mon Jun 25 05:42:40 2018

C:\Users\ragalia\Desktop\codevision\team_project\Debug\List\project.asm(1090): warning: Register r4 already defined by the .DEF directive
C:\Users\ragalia\Desktop\codevision\team_project\Debug\List\project.asm(1091): warning: Register r5 already defined by the .DEF directive
C:\Users\ragalia\Desktop\codevision\team_project\Debug\List\project.asm(1092): warning: Register r6 already defined by the .DEF directive
C:\Users\ragalia\Desktop\codevision\team_project\Debug\List\project.asm(1093): warning: Register r7 already defined by the .DEF directive
C:\Users\ragalia\Desktop\codevision\team_project\Debug\List\project.asm(1094): warning: Register r8 already defined by the .DEF directive
C:\Users\ragalia\Desktop\codevision\team_project\Debug\List\project.asm(1095): warning: Register r9 already defined by the .DEF directive
C:\Users\ragalia\Desktop\codevision\team_project\Debug\List\project.asm(1096): warning: Register r10 already defined by the .DEF directive
C:\Users\ragalia\Desktop\codevision\team_project\Debug\List\project.asm(1097): warning: Register r11 already defined by the .DEF directive
C:\Users\ragalia\Desktop\codevision\team_project\Debug\List\project.asm(1098): warning: Register r13 already defined by the .DEF directive
C:\Users\ragalia\Desktop\codevision\team_project\Debug\List\project.asm(1099): warning: Register r12 already defined by the .DEF directive
                 
                 
                 ;CodeVisionAVR C Compiler V3.12 Advanced
                 ;(C) Copyright 1998-2014 Pavel Haiduc, HP InfoTech s.r.l.
                 ;http://www.hpinfotech.com
                 
                 ;Build configuration    : Debug
                 ;Chip type              : ATmega128
                 ;Program type           : Application
                 ;Clock frequency        : 16.000000 MHz
                 ;Memory model           : Small
                 ;Optimize for           : Size
                 ;(s)printf features     : int, width
                 ;(s)scanf features      : int, width
                 ;External RAM size      : 0
                 ;Data Stack size        : 1024 byte(s)
                 ;Heap size              : 0 byte(s)
                 ;Promote 'char' to 'int': Yes
                 ;'char' is unsigned     : Yes
                 ;8 bit enums            : Yes
                 ;Global 'const' stored in FLASH: Yes
                 ;Enhanced function parameter passing: Yes
                 ;Enhanced core instructions: On
                 ;Automatic register allocation for global variables: On
                 ;Smart register allocation: On
                 
                 	#define _MODEL_SMALL_
                 
                 	#pragma AVRPART ADMIN PART_NAME ATmega128
                 	#pragma AVRPART MEMORY PROG_FLASH 131072
                 	#pragma AVRPART MEMORY EEPROM 4096
                 	#pragma AVRPART MEMORY INT_SRAM SIZE 4096
                 	#pragma AVRPART MEMORY INT_SRAM START_ADDR 0x100
                 
                 	#define CALL_SUPPORTED 1
                 
                 	.LISTMAC
                 	.EQU UDRE=0x5
                 	.EQU RXC=0x7
                 	.EQU USR=0xB
                 	.EQU UDR=0xC
                 	.EQU SPSR=0xE
                 	.EQU SPDR=0xF
                 	.EQU EERE=0x0
                 	.EQU EEWE=0x1
                 	.EQU EEMWE=0x2
                 	.EQU EECR=0x1C
                 	.EQU EEDR=0x1D
                 	.EQU EEARL=0x1E
                 	.EQU EEARH=0x1F
                 	.EQU WDTCR=0x21
                 	.EQU MCUCR=0x35
                 	.EQU RAMPZ=0x3B
                 	.EQU SPL=0x3D
                 	.EQU SPH=0x3E
                 	.EQU SREG=0x3F
                 	.EQU XMCRA=0x6D
                 	.EQU XMCRB=0x6C
                 
                 	.DEF R0X0=R0
                 	.DEF R0X1=R1
                 	.DEF R0X2=R2
                 	.DEF R0X3=R3
                 	.DEF R0X4=R4
                 	.DEF R0X5=R5
                 	.DEF R0X6=R6
                 	.DEF R0X7=R7
                 	.DEF R0X8=R8
                 	.DEF R0X9=R9
                 	.DEF R0XA=R10
                 	.DEF R0XB=R11
                 	.DEF R0XC=R12
                 	.DEF R0XD=R13
                 	.DEF R0XE=R14
                 	.DEF R0XF=R15
                 	.DEF R0X10=R16
                 	.DEF R0X11=R17
                 	.DEF R0X12=R18
                 	.DEF R0X13=R19
                 	.DEF R0X14=R20
                 	.DEF R0X15=R21
                 	.DEF R0X16=R22
                 	.DEF R0X17=R23
                 	.DEF R0X18=R24
                 	.DEF R0X19=R25
                 	.DEF R0X1A=R26
                 	.DEF R0X1B=R27
                 	.DEF R0X1C=R28
                 	.DEF R0X1D=R29
                 	.DEF R0X1E=R30
                 	.DEF R0X1F=R31
                 
                 	.EQU __SRAM_START=0x0100
                 	.EQU __SRAM_END=0x10FF
                 	.EQU __DSTACK_SIZE=0x0400
                 	.EQU __HEAP_SIZE=0x0000
                 	.EQU __CLEAR_SRAM_SIZE=__SRAM_END-__SRAM_START+1
                 
                 	.MACRO __CPD1N
                 	CPI  R30,LOW(@0)
                 	LDI  R26,HIGH(@0)
                 	CPC  R31,R26
                 	LDI  R26,BYTE3(@0)
                 	CPC  R22,R26
                 	LDI  R26,BYTE4(@0)
                 	CPC  R23,R26
                 	.ENDM
                 
                 	.MACRO __CPD2N
                 	CPI  R26,LOW(@0)
                 	LDI  R30,HIGH(@0)
                 	CPC  R27,R30
                 	LDI  R30,BYTE3(@0)
                 	CPC  R24,R30
                 	LDI  R30,BYTE4(@0)
                 	CPC  R25,R30
                 	.ENDM
                 
                 	.MACRO __CPWRR
                 	CP   R@0,R@2
                 	CPC  R@1,R@3
                 	.ENDM
                 
                 	.MACRO __CPWRN
                 	CPI  R@0,LOW(@2)
                 	LDI  R30,HIGH(@2)
                 	CPC  R@1,R30
                 	.ENDM
                 
                 	.MACRO __ADDB1MN
                 	SUBI R30,LOW(-@0-(@1))
                 	.ENDM
                 
                 	.MACRO __ADDB2MN
                 	SUBI R26,LOW(-@0-(@1))
                 	.ENDM
                 
                 	.MACRO __ADDW1MN
                 	SUBI R30,LOW(-@0-(@1))
                 	SBCI R31,HIGH(-@0-(@1))
                 	.ENDM
                 
                 	.MACRO __ADDW2MN
                 	SUBI R26,LOW(-@0-(@1))
                 	SBCI R27,HIGH(-@0-(@1))
                 	.ENDM
                 
                 	.MACRO __ADDW1FN
                 	SUBI R30,LOW(-2*@0-(@1))
                 	SBCI R31,HIGH(-2*@0-(@1))
                 	.ENDM
                 
                 	.MACRO __ADDD1FN
                 	SUBI R30,LOW(-2*@0-(@1))
                 	SBCI R31,HIGH(-2*@0-(@1))
                 	SBCI R22,BYTE3(-2*@0-(@1))
                 	.ENDM
                 
                 	.MACRO __ADDD1N
                 	SUBI R30,LOW(-@0)
                 	SBCI R31,HIGH(-@0)
                 	SBCI R22,BYTE3(-@0)
                 	SBCI R23,BYTE4(-@0)
                 	.ENDM
                 
                 	.MACRO __ADDD2N
                 	SUBI R26,LOW(-@0)
                 	SBCI R27,HIGH(-@0)
                 	SBCI R24,BYTE3(-@0)
                 	SBCI R25,BYTE4(-@0)
                 	.ENDM
                 
                 	.MACRO __SUBD1N
                 	SUBI R30,LOW(@0)
                 	SBCI R31,HIGH(@0)
                 	SBCI R22,BYTE3(@0)
                 	SBCI R23,BYTE4(@0)
                 	.ENDM
                 
                 	.MACRO __SUBD2N
                 	SUBI R26,LOW(@0)
                 	SBCI R27,HIGH(@0)
                 	SBCI R24,BYTE3(@0)
                 	SBCI R25,BYTE4(@0)
                 	.ENDM
                 
                 	.MACRO __ANDBMNN
                 	LDS  R30,@0+(@1)
                 	ANDI R30,LOW(@2)
                 	STS  @0+(@1),R30
                 	.ENDM
                 
                 	.MACRO __ANDWMNN
                 	LDS  R30,@0+(@1)
                 	ANDI R30,LOW(@2)
                 	STS  @0+(@1),R30
                 	LDS  R30,@0+(@1)+1
                 	ANDI R30,HIGH(@2)
                 	STS  @0+(@1)+1,R30
                 	.ENDM
                 
                 	.MACRO __ANDD1N
                 	ANDI R30,LOW(@0)
                 	ANDI R31,HIGH(@0)
                 	ANDI R22,BYTE3(@0)
                 	ANDI R23,BYTE4(@0)
                 	.ENDM
                 
                 	.MACRO __ANDD2N
                 	ANDI R26,LOW(@0)
                 	ANDI R27,HIGH(@0)
                 	ANDI R24,BYTE3(@0)
                 	ANDI R25,BYTE4(@0)
                 	.ENDM
                 
                 	.MACRO __ORBMNN
                 	LDS  R30,@0+(@1)
                 	ORI  R30,LOW(@2)
                 	STS  @0+(@1),R30
                 	.ENDM
                 
                 	.MACRO __ORWMNN
                 	LDS  R30,@0+(@1)
                 	ORI  R30,LOW(@2)
                 	STS  @0+(@1),R30
                 	LDS  R30,@0+(@1)+1
                 	ORI  R30,HIGH(@2)
                 	STS  @0+(@1)+1,R30
                 	.ENDM
                 
                 	.MACRO __ORD1N
                 	ORI  R30,LOW(@0)
                 	ORI  R31,HIGH(@0)
                 	ORI  R22,BYTE3(@0)
                 	ORI  R23,BYTE4(@0)
                 	.ENDM
                 
                 	.MACRO __ORD2N
                 	ORI  R26,LOW(@0)
                 	ORI  R27,HIGH(@0)
                 	ORI  R24,BYTE3(@0)
                 	ORI  R25,BYTE4(@0)
                 	.ENDM
                 
                 	.MACRO __DELAY_USB
                 	LDI  R24,LOW(@0)
                 __DELAY_USB_LOOP:
                 	DEC  R24
                 	BRNE __DELAY_USB_LOOP
                 	.ENDM
                 
                 	.MACRO __DELAY_USW
                 	LDI  R24,LOW(@0)
                 	LDI  R25,HIGH(@0)
                 __DELAY_USW_LOOP:
                 	SBIW R24,1
                 	BRNE __DELAY_USW_LOOP
                 	.ENDM
                 
                 	.MACRO __GETD1S
                 	LDD  R30,Y+@0
                 	LDD  R31,Y+@0+1
                 	LDD  R22,Y+@0+2
                 	LDD  R23,Y+@0+3
                 	.ENDM
                 
                 	.MACRO __GETD2S
                 	LDD  R26,Y+@0
                 	LDD  R27,Y+@0+1
                 	LDD  R24,Y+@0+2
                 	LDD  R25,Y+@0+3
                 	.ENDM
                 
                 	.MACRO __PUTD1S
                 	STD  Y+@0,R30
                 	STD  Y+@0+1,R31
                 	STD  Y+@0+2,R22
                 	STD  Y+@0+3,R23
                 	.ENDM
                 
                 	.MACRO __PUTD2S
                 	STD  Y+@0,R26
                 	STD  Y+@0+1,R27
                 	STD  Y+@0+2,R24
                 	STD  Y+@0+3,R25
                 	.ENDM
                 
                 	.MACRO __PUTDZ2
                 	STD  Z+@0,R26
                 	STD  Z+@0+1,R27
                 	STD  Z+@0+2,R24
                 	STD  Z+@0+3,R25
                 	.ENDM
                 
                 	.MACRO __CLRD1S
                 	STD  Y+@0,R30
                 	STD  Y+@0+1,R30
                 	STD  Y+@0+2,R30
                 	STD  Y+@0+3,R30
                 	.ENDM
                 
                 	.MACRO __POINTB1MN
                 	LDI  R30,LOW(@0+(@1))
                 	.ENDM
                 
                 	.MACRO __POINTW1MN
                 	LDI  R30,LOW(@0+(@1))
                 	LDI  R31,HIGH(@0+(@1))
                 	.ENDM
                 
                 	.MACRO __POINTD1M
                 	LDI  R30,LOW(@0)
                 	LDI  R31,HIGH(@0)
                 	LDI  R22,BYTE3(@0)
                 	LDI  R23,BYTE4(@0)
                 	.ENDM
                 
                 	.MACRO __POINTW1FN
                 	LDI  R30,LOW(2*@0+(@1))
                 	LDI  R31,HIGH(2*@0+(@1))
                 	.ENDM
                 
                 	.MACRO __POINTD1FN
                 	LDI  R30,LOW(2*@0+(@1))
                 	LDI  R31,HIGH(2*@0+(@1))
                 	LDI  R22,BYTE3(2*@0+(@1))
                 	LDI  R23,BYTE4(2*@0+(@1))
                 	.ENDM
                 
                 	.MACRO __POINTB2MN
                 	LDI  R26,LOW(@0+(@1))
                 	.ENDM
                 
                 	.MACRO __POINTW2MN
                 	LDI  R26,LOW(@0+(@1))
                 	LDI  R27,HIGH(@0+(@1))
                 	.ENDM
                 
                 	.MACRO __POINTW2FN
                 	LDI  R26,LOW(2*@0+(@1))
                 	LDI  R27,HIGH(2*@0+(@1))
                 	.ENDM
                 
                 	.MACRO __POINTD2FN
                 	LDI  R26,LOW(2*@0+(@1))
                 	LDI  R27,HIGH(2*@0+(@1))
                 	LDI  R24,BYTE3(2*@0+(@1))
                 	LDI  R25,BYTE4(2*@0+(@1))
                 	.ENDM
                 
                 	.MACRO __POINTBRM
                 	LDI  R@0,LOW(@1)
                 	.ENDM
                 
                 	.MACRO __POINTWRM
                 	LDI  R@0,LOW(@2)
                 	LDI  R@1,HIGH(@2)
                 	.ENDM
                 
                 	.MACRO __POINTBRMN
                 	LDI  R@0,LOW(@1+(@2))
                 	.ENDM
                 
                 	.MACRO __POINTWRMN
                 	LDI  R@0,LOW(@2+(@3))
                 	LDI  R@1,HIGH(@2+(@3))
                 	.ENDM
                 
                 	.MACRO __POINTWRFN
                 	LDI  R@0,LOW(@2*2+(@3))
                 	LDI  R@1,HIGH(@2*2+(@3))
                 	.ENDM
                 
                 	.MACRO __GETD1N
                 	LDI  R30,LOW(@0)
                 	LDI  R31,HIGH(@0)
                 	LDI  R22,BYTE3(@0)
                 	LDI  R23,BYTE4(@0)
                 	.ENDM
                 
                 	.MACRO __GETD2N
                 	LDI  R26,LOW(@0)
                 	LDI  R27,HIGH(@0)
                 	LDI  R24,BYTE3(@0)
                 	LDI  R25,BYTE4(@0)
                 	.ENDM
                 
                 	.MACRO __GETB1MN
                 	LDS  R30,@0+(@1)
                 	.ENDM
                 
                 	.MACRO __GETB1HMN
                 	LDS  R31,@0+(@1)
                 	.ENDM
                 
                 	.MACRO __GETW1MN
                 	LDS  R30,@0+(@1)
                 	LDS  R31,@0+(@1)+1
                 	.ENDM
                 
                 	.MACRO __GETD1MN
                 	LDS  R30,@0+(@1)
                 	LDS  R31,@0+(@1)+1
                 	LDS  R22,@0+(@1)+2
                 	LDS  R23,@0+(@1)+3
                 	.ENDM
                 
                 	.MACRO __GETBRMN
                 	LDS  R@0,@1+(@2)
                 	.ENDM
                 
                 	.MACRO __GETWRMN
                 	LDS  R@0,@2+(@3)
                 	LDS  R@1,@2+(@3)+1
                 	.ENDM
                 
                 	.MACRO __GETWRZ
                 	LDD  R@0,Z+@2
                 	LDD  R@1,Z+@2+1
                 	.ENDM
                 
                 	.MACRO __GETD2Z
                 	LDD  R26,Z+@0
                 	LDD  R27,Z+@0+1
                 	LDD  R24,Z+@0+2
                 	LDD  R25,Z+@0+3
                 	.ENDM
                 
                 	.MACRO __GETB2MN
                 	LDS  R26,@0+(@1)
                 	.ENDM
                 
                 	.MACRO __GETW2MN
                 	LDS  R26,@0+(@1)
                 	LDS  R27,@0+(@1)+1
                 	.ENDM
                 
                 	.MACRO __GETD2MN
                 	LDS  R26,@0+(@1)
                 	LDS  R27,@0+(@1)+1
                 	LDS  R24,@0+(@1)+2
                 	LDS  R25,@0+(@1)+3
                 	.ENDM
                 
                 	.MACRO __PUTB1MN
                 	STS  @0+(@1),R30
                 	.ENDM
                 
                 	.MACRO __PUTW1MN
                 	STS  @0+(@1),R30
                 	STS  @0+(@1)+1,R31
                 	.ENDM
                 
                 	.MACRO __PUTD1MN
                 	STS  @0+(@1),R30
                 	STS  @0+(@1)+1,R31
                 	STS  @0+(@1)+2,R22
                 	STS  @0+(@1)+3,R23
                 	.ENDM
                 
                 	.MACRO __PUTB1EN
                 	LDI  R26,LOW(@0+(@1))
                 	LDI  R27,HIGH(@0+(@1))
                 	CALL __EEPROMWRB
                 	.ENDM
                 
                 	.MACRO __PUTW1EN
                 	LDI  R26,LOW(@0+(@1))
                 	LDI  R27,HIGH(@0+(@1))
                 	CALL __EEPROMWRW
                 	.ENDM
                 
                 	.MACRO __PUTD1EN
                 	LDI  R26,LOW(@0+(@1))
                 	LDI  R27,HIGH(@0+(@1))
                 	CALL __EEPROMWRD
                 	.ENDM
                 
                 	.MACRO __PUTBR0MN
                 	STS  @0+(@1),R0
                 	.ENDM
                 
                 	.MACRO __PUTBMRN
                 	STS  @0+(@1),R@2
                 	.ENDM
                 
                 	.MACRO __PUTWMRN
                 	STS  @0+(@1),R@2
                 	STS  @0+(@1)+1,R@3
                 	.ENDM
                 
                 	.MACRO __PUTBZR
                 	STD  Z+@1,R@0
                 	.ENDM
                 
                 	.MACRO __PUTWZR
                 	STD  Z+@2,R@0
                 	STD  Z+@2+1,R@1
                 	.ENDM
                 
                 	.MACRO __GETW1R
                 	MOV  R30,R@0
                 	MOV  R31,R@1
                 	.ENDM
                 
                 	.MACRO __GETW2R
                 	MOV  R26,R@0
                 	MOV  R27,R@1
                 	.ENDM
                 
                 	.MACRO __GETWRN
                 	LDI  R@0,LOW(@2)
                 	LDI  R@1,HIGH(@2)
                 	.ENDM
                 
                 	.MACRO __PUTW1R
                 	MOV  R@0,R30
                 	MOV  R@1,R31
                 	.ENDM
                 
                 	.MACRO __PUTW2R
                 	MOV  R@0,R26
                 	MOV  R@1,R27
                 	.ENDM
                 
                 	.MACRO __ADDWRN
                 	SUBI R@0,LOW(-@2)
                 	SBCI R@1,HIGH(-@2)
                 	.ENDM
                 
                 	.MACRO __ADDWRR
                 	ADD  R@0,R@2
                 	ADC  R@1,R@3
                 	.ENDM
                 
                 	.MACRO __SUBWRN
                 	SUBI R@0,LOW(@2)
                 	SBCI R@1,HIGH(@2)
                 	.ENDM
                 
                 	.MACRO __SUBWRR
                 	SUB  R@0,R@2
                 	SBC  R@1,R@3
                 	.ENDM
                 
                 	.MACRO __ANDWRN
                 	ANDI R@0,LOW(@2)
                 	ANDI R@1,HIGH(@2)
                 	.ENDM
                 
                 	.MACRO __ANDWRR
                 	AND  R@0,R@2
                 	AND  R@1,R@3
                 	.ENDM
                 
                 	.MACRO __ORWRN
                 	ORI  R@0,LOW(@2)
                 	ORI  R@1,HIGH(@2)
                 	.ENDM
                 
                 	.MACRO __ORWRR
                 	OR   R@0,R@2
                 	OR   R@1,R@3
                 	.ENDM
                 
                 	.MACRO __EORWRR
                 	EOR  R@0,R@2
                 	EOR  R@1,R@3
                 	.ENDM
                 
                 	.MACRO __GETWRS
                 	LDD  R@0,Y+@2
                 	LDD  R@1,Y+@2+1
                 	.ENDM
                 
                 	.MACRO __PUTBSR
                 	STD  Y+@1,R@0
                 	.ENDM
                 
                 	.MACRO __PUTWSR
                 	STD  Y+@2,R@0
                 	STD  Y+@2+1,R@1
                 	.ENDM
                 
                 	.MACRO __MOVEWRR
                 	MOV  R@0,R@2
                 	MOV  R@1,R@3
                 	.ENDM
                 
                 	.MACRO __INWR
                 	IN   R@0,@2
                 	IN   R@1,@2+1
                 	.ENDM
                 
                 	.MACRO __OUTWR
                 	OUT  @2+1,R@1
                 	OUT  @2,R@0
                 	.ENDM
                 
                 	.MACRO __CALL1MN
                 	LDS  R30,@0+(@1)
                 	LDS  R31,@0+(@1)+1
                 	ICALL
                 	.ENDM
                 
                 	.MACRO __CALL1FN
                 	LDI  R30,LOW(2*@0+(@1))
                 	LDI  R31,HIGH(2*@0+(@1))
                 	CALL __GETW1PF
                 	ICALL
                 	.ENDM
                 
                 	.MACRO __CALL2EN
                 	PUSH R26
                 	PUSH R27
                 	LDI  R26,LOW(@0+(@1))
                 	LDI  R27,HIGH(@0+(@1))
                 	CALL __EEPROMRDW
                 	POP  R27
                 	POP  R26
                 	ICALL
                 	.ENDM
                 
                 	.MACRO __CALL2EX
                 	SUBI R26,LOW(-@0)
                 	SBCI R27,HIGH(-@0)
                 	CALL __EEPROMRDD
                 	ICALL
                 	.ENDM
                 
                 	.MACRO __GETW1STACK
                 	IN   R30,SPL
                 	IN   R31,SPH
                 	ADIW R30,@0+1
                 	LD   R0,Z+
                 	LD   R31,Z
                 	MOV  R30,R0
                 	.ENDM
                 
                 	.MACRO __GETD1STACK
                 	IN   R30,SPL
                 	IN   R31,SPH
                 	ADIW R30,@0+1
                 	LD   R0,Z+
                 	LD   R1,Z+
                 	LD   R22,Z
                 	MOVW R30,R0
                 	.ENDM
                 
                 	.MACRO __NBST
                 	BST  R@0,@1
                 	IN   R30,SREG
                 	LDI  R31,0x40
                 	EOR  R30,R31
                 	OUT  SREG,R30
                 	.ENDM
                 
                 
                 	.MACRO __PUTB1SN
                 	LDD  R26,Y+@0
                 	LDD  R27,Y+@0+1
                 	SUBI R26,LOW(-@1)
                 	SBCI R27,HIGH(-@1)
                 	ST   X,R30
                 	.ENDM
                 
                 	.MACRO __PUTW1SN
                 	LDD  R26,Y+@0
                 	LDD  R27,Y+@0+1
                 	SUBI R26,LOW(-@1)
                 	SBCI R27,HIGH(-@1)
                 	ST   X+,R30
                 	ST   X,R31
                 	.ENDM
                 
                 	.MACRO __PUTD1SN
                 	LDD  R26,Y+@0
                 	LDD  R27,Y+@0+1
                 	SUBI R26,LOW(-@1)
                 	SBCI R27,HIGH(-@1)
                 	CALL __PUTDP1
                 	.ENDM
                 
                 	.MACRO __PUTB1SNS
                 	LDD  R26,Y+@0
                 	LDD  R27,Y+@0+1
                 	ADIW R26,@1
                 	ST   X,R30
                 	.ENDM
                 
                 	.MACRO __PUTW1SNS
                 	LDD  R26,Y+@0
                 	LDD  R27,Y+@0+1
                 	ADIW R26,@1
                 	ST   X+,R30
                 	ST   X,R31
                 	.ENDM
                 
                 	.MACRO __PUTD1SNS
                 	LDD  R26,Y+@0
                 	LDD  R27,Y+@0+1
                 	ADIW R26,@1
                 	CALL __PUTDP1
                 	.ENDM
                 
                 	.MACRO __PUTB1PMN
                 	LDS  R26,@0
                 	LDS  R27,@0+1
                 	SUBI R26,LOW(-@1)
                 	SBCI R27,HIGH(-@1)
                 	ST   X,R30
                 	.ENDM
                 
                 	.MACRO __PUTW1PMN
                 	LDS  R26,@0
                 	LDS  R27,@0+1
                 	SUBI R26,LOW(-@1)
                 	SBCI R27,HIGH(-@1)
                 	ST   X+,R30
                 	ST   X,R31
                 	.ENDM
                 
                 	.MACRO __PUTD1PMN
                 	LDS  R26,@0
                 	LDS  R27,@0+1
                 	SUBI R26,LOW(-@1)
                 	SBCI R27,HIGH(-@1)
                 	CALL __PUTDP1
                 	.ENDM
                 
                 	.MACRO __PUTB1PMNS
                 	LDS  R26,@0
                 	LDS  R27,@0+1
                 	ADIW R26,@1
                 	ST   X,R30
                 	.ENDM
                 
                 	.MACRO __PUTW1PMNS
                 	LDS  R26,@0
                 	LDS  R27,@0+1
                 	ADIW R26,@1
                 	ST   X+,R30
                 	ST   X,R31
                 	.ENDM
                 
                 	.MACRO __PUTD1PMNS
                 	LDS  R26,@0
                 	LDS  R27,@0+1
                 	ADIW R26,@1
                 	CALL __PUTDP1
                 	.ENDM
                 
                 	.MACRO __PUTB1RN
                 	MOVW R26,R@0
                 	SUBI R26,LOW(-@1)
                 	SBCI R27,HIGH(-@1)
                 	ST   X,R30
                 	.ENDM
                 
                 	.MACRO __PUTW1RN
                 	MOVW R26,R@0
                 	SUBI R26,LOW(-@1)
                 	SBCI R27,HIGH(-@1)
                 	ST   X+,R30
                 	ST   X,R31
                 	.ENDM
                 
                 	.MACRO __PUTD1RN
                 	MOVW R26,R@0
                 	SUBI R26,LOW(-@1)
                 	SBCI R27,HIGH(-@1)
                 	CALL __PUTDP1
                 	.ENDM
                 
                 	.MACRO __PUTB1RNS
                 	MOVW R26,R@0
                 	ADIW R26,@1
                 	ST   X,R30
                 	.ENDM
                 
                 	.MACRO __PUTW1RNS
                 	MOVW R26,R@0
                 	ADIW R26,@1
                 	ST   X+,R30
                 	ST   X,R31
                 	.ENDM
                 
                 	.MACRO __PUTD1RNS
                 	MOVW R26,R@0
                 	ADIW R26,@1
                 	CALL __PUTDP1
                 	.ENDM
                 
                 	.MACRO __PUTB1RON
                 	MOV  R26,R@0
                 	MOV  R27,R@1
                 	SUBI R26,LOW(-@2)
                 	SBCI R27,HIGH(-@2)
                 	ST   X,R30
                 	.ENDM
                 
                 	.MACRO __PUTW1RON
                 	MOV  R26,R@0
                 	MOV  R27,R@1
                 	SUBI R26,LOW(-@2)
                 	SBCI R27,HIGH(-@2)
                 	ST   X+,R30
                 	ST   X,R31
                 	.ENDM
                 
                 	.MACRO __PUTD1RON
                 	MOV  R26,R@0
                 	MOV  R27,R@1
                 	SUBI R26,LOW(-@2)
                 	SBCI R27,HIGH(-@2)
                 	CALL __PUTDP1
                 	.ENDM
                 
                 	.MACRO __PUTB1RONS
                 	MOV  R26,R@0
                 	MOV  R27,R@1
                 	ADIW R26,@2
                 	ST   X,R30
                 	.ENDM
                 
                 	.MACRO __PUTW1RONS
                 	MOV  R26,R@0
                 	MOV  R27,R@1
                 	ADIW R26,@2
                 	ST   X+,R30
                 	ST   X,R31
                 	.ENDM
                 
                 	.MACRO __PUTD1RONS
                 	MOV  R26,R@0
                 	MOV  R27,R@1
                 	ADIW R26,@2
                 	CALL __PUTDP1
                 	.ENDM
                 
                 
                 	.MACRO __GETB1SX
                 	MOVW R30,R28
                 	SUBI R30,LOW(-@0)
                 	SBCI R31,HIGH(-@0)
                 	LD   R30,Z
                 	.ENDM
                 
                 	.MACRO __GETB1HSX
                 	MOVW R30,R28
                 	SUBI R30,LOW(-@0)
                 	SBCI R31,HIGH(-@0)
                 	LD   R31,Z
                 	.ENDM
                 
                 	.MACRO __GETW1SX
                 	MOVW R30,R28
                 	SUBI R30,LOW(-@0)
                 	SBCI R31,HIGH(-@0)
                 	LD   R0,Z+
                 	LD   R31,Z
                 	MOV  R30,R0
                 	.ENDM
                 
                 	.MACRO __GETD1SX
                 	MOVW R30,R28
                 	SUBI R30,LOW(-@0)
                 	SBCI R31,HIGH(-@0)
                 	LD   R0,Z+
                 	LD   R1,Z+
                 	LD   R22,Z+
                 	LD   R23,Z
                 	MOVW R30,R0
                 	.ENDM
                 
                 	.MACRO __GETB2SX
                 	MOVW R26,R28
                 	SUBI R26,LOW(-@0)
                 	SBCI R27,HIGH(-@0)
                 	LD   R26,X
                 	.ENDM
                 
                 	.MACRO __GETW2SX
                 	MOVW R26,R28
                 	SUBI R26,LOW(-@0)
                 	SBCI R27,HIGH(-@0)
                 	LD   R0,X+
                 	LD   R27,X
                 	MOV  R26,R0
                 	.ENDM
                 
                 	.MACRO __GETD2SX
                 	MOVW R26,R28
                 	SUBI R26,LOW(-@0)
                 	SBCI R27,HIGH(-@0)
                 	LD   R0,X+
                 	LD   R1,X+
                 	LD   R24,X+
                 	LD   R25,X
                 	MOVW R26,R0
                 	.ENDM
                 
                 	.MACRO __GETBRSX
                 	MOVW R30,R28
                 	SUBI R30,LOW(-@1)
                 	SBCI R31,HIGH(-@1)
                 	LD   R@0,Z
                 	.ENDM
                 
                 	.MACRO __GETWRSX
                 	MOVW R30,R28
                 	SUBI R30,LOW(-@2)
                 	SBCI R31,HIGH(-@2)
                 	LD   R@0,Z+
                 	LD   R@1,Z
                 	.ENDM
                 
                 	.MACRO __GETBRSX2
                 	MOVW R26,R28
                 	SUBI R26,LOW(-@1)
                 	SBCI R27,HIGH(-@1)
                 	LD   R@0,X
                 	.ENDM
                 
                 	.MACRO __GETWRSX2
                 	MOVW R26,R28
                 	SUBI R26,LOW(-@2)
                 	SBCI R27,HIGH(-@2)
                 	LD   R@0,X+
                 	LD   R@1,X
                 	.ENDM
                 
                 	.MACRO __LSLW8SX
                 	MOVW R30,R28
                 	SUBI R30,LOW(-@0)
                 	SBCI R31,HIGH(-@0)
                 	LD   R31,Z
                 	CLR  R30
                 	.ENDM
                 
                 	.MACRO __PUTB1SX
                 	MOVW R26,R28
                 	SUBI R26,LOW(-@0)
                 	SBCI R27,HIGH(-@0)
                 	ST   X,R30
                 	.ENDM
                 
                 	.MACRO __PUTW1SX
                 	MOVW R26,R28
                 	SUBI R26,LOW(-@0)
                 	SBCI R27,HIGH(-@0)
                 	ST   X+,R30
                 	ST   X,R31
                 	.ENDM
                 
                 	.MACRO __PUTD1SX
                 	MOVW R26,R28
                 	SUBI R26,LOW(-@0)
                 	SBCI R27,HIGH(-@0)
                 	ST   X+,R30
                 	ST   X+,R31
                 	ST   X+,R22
                 	ST   X,R23
                 	.ENDM
                 
                 	.MACRO __CLRW1SX
                 	MOVW R26,R28
                 	SUBI R26,LOW(-@0)
                 	SBCI R27,HIGH(-@0)
                 	ST   X+,R30
                 	ST   X,R30
                 	.ENDM
                 
                 	.MACRO __CLRD1SX
                 	MOVW R26,R28
                 	SUBI R26,LOW(-@0)
                 	SBCI R27,HIGH(-@0)
                 	ST   X+,R30
                 	ST   X+,R30
                 	ST   X+,R30
                 	ST   X,R30
                 	.ENDM
                 
                 	.MACRO __PUTB2SX
                 	MOVW R30,R28
                 	SUBI R30,LOW(-@0)
                 	SBCI R31,HIGH(-@0)
                 	ST   Z,R26
                 	.ENDM
                 
                 	.MACRO __PUTW2SX
                 	MOVW R30,R28
                 	SUBI R30,LOW(-@0)
                 	SBCI R31,HIGH(-@0)
                 	ST   Z+,R26
                 	ST   Z,R27
                 	.ENDM
                 
                 	.MACRO __PUTD2SX
                 	MOVW R30,R28
                 	SUBI R30,LOW(-@0)
                 	SBCI R31,HIGH(-@0)
                 	ST   Z+,R26
                 	ST   Z+,R27
                 	ST   Z+,R24
                 	ST   Z,R25
                 	.ENDM
                 
                 	.MACRO __PUTBSRX
                 	MOVW R30,R28
                 	SUBI R30,LOW(-@1)
                 	SBCI R31,HIGH(-@1)
                 	ST   Z,R@0
                 	.ENDM
                 
                 	.MACRO __PUTWSRX
                 	MOVW R30,R28
                 	SUBI R30,LOW(-@2)
                 	SBCI R31,HIGH(-@2)
                 	ST   Z+,R@0
                 	ST   Z,R@1
                 	.ENDM
                 
                 	.MACRO __PUTB1SNX
                 	MOVW R26,R28
                 	SUBI R26,LOW(-@0)
                 	SBCI R27,HIGH(-@0)
                 	LD   R0,X+
                 	LD   R27,X
                 	MOV  R26,R0
                 	SUBI R26,LOW(-@1)
                 	SBCI R27,HIGH(-@1)
                 	ST   X,R30
                 	.ENDM
                 
                 	.MACRO __PUTW1SNX
                 	MOVW R26,R28
                 	SUBI R26,LOW(-@0)
                 	SBCI R27,HIGH(-@0)
                 	LD   R0,X+
                 	LD   R27,X
                 	MOV  R26,R0
                 	SUBI R26,LOW(-@1)
                 	SBCI R27,HIGH(-@1)
                 	ST   X+,R30
                 	ST   X,R31
                 	.ENDM
                 
                 	.MACRO __PUTD1SNX
                 	MOVW R26,R28
                 	SUBI R26,LOW(-@0)
                 	SBCI R27,HIGH(-@0)
                 	LD   R0,X+
                 	LD   R27,X
                 	MOV  R26,R0
                 	SUBI R26,LOW(-@1)
                 	SBCI R27,HIGH(-@1)
                 	ST   X+,R30
                 	ST   X+,R31
                 	ST   X+,R22
                 	ST   X,R23
                 	.ENDM
                 
                 	.MACRO __MULBRR
                 	MULS R@0,R@1
                 	MOVW R30,R0
                 	.ENDM
                 
                 	.MACRO __MULBRRU
                 	MUL  R@0,R@1
                 	MOVW R30,R0
                 	.ENDM
                 
                 	.MACRO __MULBRR0
                 	MULS R@0,R@1
                 	.ENDM
                 
                 	.MACRO __MULBRRU0
                 	MUL  R@0,R@1
                 	.ENDM
                 
                 	.MACRO __MULBNWRU
                 	LDI  R26,@2
                 	MUL  R26,R@0
                 	MOVW R30,R0
                 	MUL  R26,R@1
                 	ADD  R31,R0
                 	.ENDM
                 
                 ;NAME DEFINITIONS FOR GLOBAL VARIABLES ALLOCATED TO REGISTERS
                 	.DEF _time_loop=R4
                 	.DEF _time_loop_msb=R5
                 	.DEF _led_count=R6
                 	.DEF _led_count_msb=R7
                 	.DEF _led_flag=R8
                 	.DEF _led_flag_msb=R9
                 	.DEF _time_count=R10
                 	.DEF _time_count_msb=R11
                 	.DEF _key4_flag=R13
                 	.DEF _key5_flag=R12
                 
                 	.CSEG
                 	.ORG 0x00
                 
                 ;START OF CODE MARKER
                 __START_OF_CODE:
                 
                 ;INTERRUPT VECTORS
000000 940c 07c3 	JMP  __RESET
000002 940c 0000 	JMP  0x00
000004 940c 0000 	JMP  0x00
000006 940c 0000 	JMP  0x00
000008 940c 0000 	JMP  0x00
00000a 940c 09bc 	JMP  _ext_int4_isr
00000c 940c 09d0 	JMP  _ext_int5_isr
00000e 940c 09e4 	JMP  _ext_int6_isr
000010 940c 0a03 	JMP  _ext_int7_isr
000012 940c 0000 	JMP  0x00
000014 940c 0000 	JMP  0x00
000016 940c 0000 	JMP  0x00
000018 940c 0000 	JMP  0x00
00001a 940c 0000 	JMP  0x00
00001c 940c 0000 	JMP  0x00
00001e 940c 0000 	JMP  0x00
000020 940c 0c43 	JMP  _timer0_ovf_isr
000022 940c 0000 	JMP  0x00
000024 940c 0000 	JMP  0x00
000026 940c 0000 	JMP  0x00
000028 940c 0000 	JMP  0x00
00002a 940c 0000 	JMP  0x00
00002c 940c 0000 	JMP  0x00
00002e 940c 0000 	JMP  0x00
000030 940c 0000 	JMP  0x00
000032 940c 0000 	JMP  0x00
000034 940c 0000 	JMP  0x00
000036 940c 0000 	JMP  0x00
000038 940c 0000 	JMP  0x00
00003a 940c 0000 	JMP  0x00
00003c 940c 0000 	JMP  0x00
00003e 940c 0000 	JMP  0x00
000040 940c 0000 	JMP  0x00
000042 940c 0000 	JMP  0x00
000044 940c 0000 	JMP  0x00
                 
                 _fnd_font:
000046 063f
000047 4f5b
000048 6d66
000049 277d      	.DB  0x3F,0x6,0x5B,0x4F,0x66,0x6D,0x7D,0x27
00004a 6f7f
00004b 3876
00004c 5c79
00004d 7173      	.DB  0x7F,0x6F,0x76,0x38,0x79,0x5C,0x73,0x71
00004e 5e39
00004f 1c77
000050 5044
C:\Users\ragalia\Desktop\codevision\team_project\Debug\List\project.asm(1147): warning: .cseg .db misalignment - padding zero byte
000051 007c      	.DB  0x39,0x5E,0x77,0x1C,0x44,0x50,0x7C
                 _font:
000052 0000
000053 0000
000054 0000
000055 4f00      	.DB  0x0,0x0,0x0,0x0,0x0,0x0,0x0,0x4F
000056 0000
000057 0700
000058 0700
000059 1400      	.DB  0x0,0x0,0x0,0x7,0x0,0x7,0x0,0x14
00005a 147f
00005b 147f
00005c 2a24
00005d 2a7f      	.DB  0x7F,0x14,0x7F,0x14,0x24,0x2A,0x7F,0x2A
00005e 2312
00005f 0813
000060 6264
000061 4936      	.DB  0x12,0x23,0x13,0x8,0x64,0x62,0x36,0x49
000062 2255
000063 0050
000064 0305
000065 0000      	.DB  0x55,0x22,0x50,0x0,0x5,0x3,0x0,0x0
000066 1c00
000067 4122
000068 0000
000069 2241      	.DB  0x0,0x1C,0x22,0x41,0x0,0x0,0x41,0x22
00006a 001c
00006b 0814
00006c 083e
00006d 0814      	.DB  0x1C,0x0,0x14,0x8,0x3E,0x8,0x14,0x8
00006e 3e08
00006f 0808
000070 5000
000071 0030      	.DB  0x8,0x3E,0x8,0x8,0x0,0x50,0x30,0x0
000072 0800
000073 0808
000074 0808
000075 6000      	.DB  0x0,0x8,0x8,0x8,0x8,0x8,0x0,0x60
000076 0060
000077 2000
000078 0810
000079 0204      	.DB  0x60,0x0,0x0,0x20,0x10,0x8,0x4,0x2
00007a 513e
00007b 4549
00007c 003e
00007d 7f42      	.DB  0x3E,0x51,0x49,0x45,0x3E,0x0,0x42,0x7F
00007e 0040
00007f 6142
000080 4951
000081 2146      	.DB  0x40,0x0,0x42,0x61,0x51,0x49,0x46,0x21
000082 4541
000083 314b
000084 1418
000085 7f12      	.DB  0x41,0x45,0x4B,0x31,0x18,0x14,0x12,0x7F
000086 2710
000087 4545
000088 3945
000089 4a3c      	.DB  0x10,0x27,0x45,0x45,0x45,0x39,0x3C,0x4A
00008a 4949
00008b 0130
00008c 0971
00008d 0305      	.DB  0x49,0x49,0x30,0x1,0x71,0x9,0x5,0x3
00008e 4936
00008f 4949
000090 0636
000091 4949      	.DB  0x36,0x49,0x49,0x49,0x36,0x6,0x49,0x49
000092 1e29
000093 3600
000094 0036
000095 0000      	.DB  0x29,0x1E,0x0,0x36,0x36,0x0,0x0,0x0
000096 3656
000097 0000
000098 1408
000099 4122      	.DB  0x56,0x36,0x0,0x0,0x8,0x14,0x22,0x41
00009a 1400
00009b 1414
00009c 1414
00009d 4100      	.DB  0x0,0x14,0x14,0x14,0x14,0x14,0x0,0x41
00009e 1422
00009f 0208
0000a0 5101
0000a1 0609      	.DB  0x22,0x14,0x8,0x2,0x1,0x51,0x9,0x6
0000a2 4932
0000a3 4179
0000a4 7e3e
0000a5 1111      	.DB  0x32,0x49,0x79,0x41,0x3E,0x7E,0x11,0x11
0000a6 7e11
0000a7 497f
0000a8 4949
0000a9 3e36      	.DB  0x11,0x7E,0x7F,0x49,0x49,0x49,0x36,0x3E
0000aa 4141
0000ab 2241
0000ac 417f
0000ad 2241      	.DB  0x41,0x41,0x41,0x22,0x7F,0x41,0x41,0x22
0000ae 7f1c
0000af 4949
0000b0 4149
0000b1 097f      	.DB  0x1C,0x7F,0x49,0x49,0x49,0x41,0x7F,0x9
0000b2 0909
0000b3 3e01
0000b4 4941
0000b5 7a49      	.DB  0x9,0x9,0x1,0x3E,0x41,0x49,0x49,0x7A
0000b6 087f
0000b7 0808
0000b8 007f
0000b9 7f41      	.DB  0x7F,0x8,0x8,0x8,0x7F,0x0,0x41,0x7F
0000ba 0041
0000bb 4020
0000bc 3f41
0000bd 7f01      	.DB  0x41,0x0,0x20,0x40,0x41,0x3F,0x1,0x7F
0000be 1408
0000bf 4122
0000c0 407f
0000c1 4040      	.DB  0x8,0x14,0x22,0x41,0x7F,0x40,0x40,0x40
0000c2 7f40
0000c3 0c02
0000c4 7f02
0000c5 047f      	.DB  0x40,0x7F,0x2,0xC,0x2,0x7F,0x7F,0x4
0000c6 1008
0000c7 3e7f
0000c8 4141
0000c9 3e41      	.DB  0x8,0x10,0x7F,0x3E,0x41,0x41,0x41,0x3E
0000ca 097f
0000cb 0909
0000cc 3e06
0000cd 5141      	.DB  0x7F,0x9,0x9,0x9,0x6,0x3E,0x41,0x51
0000ce 5e21
0000cf 097f
0000d0 2919
0000d1 2646      	.DB  0x21,0x5E,0x7F,0x9,0x19,0x29,0x46,0x26
0000d2 4949
0000d3 3249
0000d4 0101
0000d5 017f      	.DB  0x49,0x49,0x49,0x32,0x1,0x1,0x7F,0x1
0000d6 3f01
0000d7 4040
0000d8 3f40
0000d9 201f      	.DB  0x1,0x3F,0x40,0x40,0x40,0x3F,0x1F,0x20
0000da 2040
0000db 3f1f
0000dc 3840
0000dd 3f40      	.DB  0x40,0x20,0x1F,0x3F,0x40,0x38,0x40,0x3F
0000de 1463
0000df 1408
0000e0 0763
0000e1 7008      	.DB  0x63,0x14,0x8,0x14,0x63,0x7,0x8,0x70
0000e2 0708
0000e3 5161
0000e4 4549
0000e5 0043      	.DB  0x8,0x7,0x61,0x51,0x49,0x45,0x43,0x0
0000e6 417f
0000e7 0041
0000e8 0402
0000e9 1008      	.DB  0x7F,0x41,0x41,0x0,0x2,0x4,0x8,0x10
0000ea 0020
0000eb 4141
0000ec 007f
0000ed 0204      	.DB  0x20,0x0,0x41,0x41,0x7F,0x0,0x4,0x2
0000ee 0201
0000ef 4004
0000f0 4040
0000f1 4040      	.DB  0x1,0x2,0x4,0x40,0x40,0x40,0x40,0x40
0000f2 0100
0000f3 0402
0000f4 2000
0000f5 5454      	.DB  0x0,0x1,0x2,0x4,0x0,0x20,0x54,0x54
0000f6 7854
0000f7 487f
0000f8 4444
0000f9 3838      	.DB  0x54,0x78,0x7F,0x48,0x44,0x44,0x38,0x38
0000fa 4444
0000fb 2044
0000fc 4438
0000fd 4844      	.DB  0x44,0x44,0x44,0x20,0x38,0x44,0x44,0x48
0000fe 387f
0000ff 5454
000100 1854
000101 7e08      	.DB  0x7F,0x38,0x54,0x54,0x54,0x18,0x8,0x7E
000102 0109
000103 0c02
000104 5252
000105 3e52      	.DB  0x9,0x1,0x2,0xC,0x52,0x52,0x52,0x3E
000106 087f
000107 0404
000108 0078
000109 7d04      	.DB  0x7F,0x8,0x4,0x4,0x78,0x0,0x4,0x7D
00010a 0000
00010b 4020
00010c 3d44
00010d 7f00      	.DB  0x0,0x0,0x20,0x40,0x44,0x3D,0x0,0x7F
00010e 2810
00010f 0044
000110 4100
000111 407f      	.DB  0x10,0x28,0x44,0x0,0x0,0x41,0x7F,0x40
000112 7c00
000113 1804
000114 7c04
000115 087c      	.DB  0x0,0x7C,0x4,0x18,0x4,0x7C,0x7C,0x8
000116 0404
000117 3878
000118 4444
000119 3844      	.DB  0x4,0x4,0x78,0x38,0x44,0x44,0x44,0x38
00011a 147c
00011b 1414
00011c 0808
00011d 1414      	.DB  0x7C,0x14,0x14,0x14,0x8,0x8,0x14,0x14
00011e 7c18
00011f 087c
000120 0404
000121 4808      	.DB  0x18,0x7C,0x7C,0x8,0x4,0x4,0x8,0x48
000122 5454
000123 2054
000124 3f04
000125 4044      	.DB  0x54,0x54,0x54,0x20,0x4,0x3F,0x44,0x40
000126 3c20
000127 4040
000128 7c20
000129 201c      	.DB  0x20,0x3C,0x40,0x40,0x20,0x7C,0x1C,0x20
00012a 2040
00012b 3c1c
00012c 3040
00012d 3c40      	.DB  0x40,0x20,0x1C,0x3C,0x40,0x30,0x40,0x3C
00012e 2844
00012f 2810
000130 0c44
000131 5050      	.DB  0x44,0x28,0x10,0x28,0x44,0xC,0x50,0x50
000132 3c50
000133 6444
000134 4c54
000135 0044      	.DB  0x50,0x3C,0x44,0x64,0x54,0x4C,0x44,0x0
000136 3608
000137 0041
000138 0000
000139 0077      	.DB  0x8,0x36,0x41,0x0,0x0,0x0,0x77,0x0
00013a 0000
00013b 3641
00013c 0008
00013d 0408      	.DB  0x0,0x0,0x41,0x36,0x8,0x0,0x8,0x4
00013e 1008
C:\Users\ragalia\Desktop\codevision\team_project\Debug\List\project.asm(1208): warning: .cseg .db misalignment - padding zero byte
00013f 0008      	.DB  0x8,0x10,0x8
                 _screen1:
000140 0000
000141 0000
000142 0000
000143 0000      	.DB  0x0,0x0,0x0,0x0,0x0,0x0,0x0,0x0
000144 0000
000145 0000
000146 00c0
000147 0000      	.DB  0x0,0x0,0x0,0x0,0xC0,0x0,0x0,0x0
000148 0000
000149 ff00
00014a 80ff
00014b 0000      	.DB  0x0,0x0,0x0,0xFF,0xFF,0x80,0x0,0x0
00014c 0000
00014d ff07
00014e f0ff
00014f 0000      	.DB  0x0,0x0,0x7,0xFF,0xFF,0xF0,0x0,0x0
000150 0000
000151 f01f
000152 fc01
000153 0000      	.DB  0x0,0x0,0x1F,0xF0,0x1,0xFC,0x0,0x0
000154 0000
000155 807f
000156 3f00
000157 0000      	.DB  0x0,0x0,0x7F,0x80,0x0,0x3F,0x0,0x0
000158 0000
000159 00fc
00015a 0700
00015b 0080      	.DB  0x0,0x0,0xFC,0x0,0x0,0x7,0x80,0x0
00015c 0100
00015d 00f0
00015e 0100
00015f 00c0      	.DB  0x0,0x1,0xF0,0x0,0x0,0x1,0xC0,0x0
000160 0700
000161 00e0
000162 0000
000163 0070      	.DB  0x0,0x7,0xE0,0x0,0x0,0x0,0x70,0x0
000164 0f00
000165 00c0
000166 0000
000167 0038      	.DB  0x0,0xF,0xC0,0x0,0x0,0x0,0x38,0x0
000168 1f00
000169 0000
00016a 0000
00016b 000c      	.DB  0x0,0x1F,0x0,0x0,0x0,0x0,0xC,0x0
00016c 3e00
00016d 0000
00016e 0000
00016f 0006      	.DB  0x0,0x3E,0x0,0x0,0x0,0x0,0x6,0x0
000170 7c00
000171 0000
000172 0000
000173 0002      	.DB  0x0,0x7C,0x0,0x0,0x0,0x0,0x2,0x0
000174 7800
000175 0000
000176 0000
000177 0001      	.DB  0x0,0x78,0x0,0x0,0x0,0x0,0x1,0x0
000178 f000
000179 0000
00017a 0000
00017b 8000      	.DB  0x0,0xF0,0x0,0x0,0x0,0x0,0x0,0x80
00017c e001
00017d 0000
00017e 0000
00017f c000      	.DB  0x1,0xE0,0x0,0x0,0x0,0x0,0x0,0xC0
000180 e001
000181 8003
000182 0000
000183 4000      	.DB  0x1,0xE0,0x3,0x80,0x0,0x0,0x0,0x40
000184 c003
000185 8007
000186 007e
000187 6000      	.DB  0x3,0xC0,0x7,0x80,0x7E,0x0,0x0,0x60
000188 8003
000189 000f
00018a 807f
00018b 2000      	.DB  0x3,0x80,0xF,0x0,0x7F,0x80,0x0,0x20
00018c 8007
00018d 001e
00018e c01f
00018f 3000      	.DB  0x7,0x80,0x1E,0x0,0x1F,0xC0,0x0,0x30
000190 0007
000191 001c
000192 e00f
000193 1000      	.DB  0x7,0x0,0x1C,0x0,0xF,0xE0,0x0,0x10
000194 0007
000195 003c
000196 e007
000197 1000      	.DB  0x7,0x0,0x3C,0x0,0x7,0xE0,0x0,0x10
000198 000f
000199 0038
00019a e007
00019b 0800      	.DB  0xF,0x0,0x38,0x0,0x7,0xE0,0x0,0x8
00019c 000e
00019d 0078
00019e e00f
00019f 0800      	.DB  0xE,0x0,0x78,0x0,0xF,0xE0,0x0,0x8
0001a0 000e
0001a1 0078
0001a2 c01f
0001a3 0800      	.DB  0xE,0x0,0x78,0x0,0x1F,0xC0,0x0,0x8
0001a4 001e
0001a5 0078
0001a6 807f
0001a7 0800      	.DB  0x1E,0x0,0x78,0x0,0x7F,0x80,0x0,0x8
0001a8 001e
0001a9 00f0
0001aa 007f
0001ab 0c00      	.DB  0x1E,0x0,0xF0,0x0,0x7F,0x0,0x0,0xC
0001ac 001e
0001ad 00f0
0001ae 0000
0001af 0400      	.DB  0x1E,0x0,0xF0,0x0,0x0,0x0,0x0,0x4
0001b0 001e
0001b1 00f0
0001b2 0000
0001b3 0400      	.DB  0x1E,0x0,0xF0,0x0,0x0,0x0,0x0,0x4
0001b4 001c
0001b5 00f0
0001b6 0000
0001b7 0400      	.DB  0x1C,0x0,0xF0,0x0,0x0,0x0,0x0,0x4
0001b8 001c
0001b9 00f0
0001ba 0000
0001bb 0400      	.DB  0x1C,0x0,0xF0,0x0,0x0,0x0,0x0,0x4
0001bc 001c
0001bd 00f0
0001be 0000
0001bf 0400      	.DB  0x1C,0x0,0xF0,0x0,0x0,0x0,0x0,0x4
0001c0 001c
0001c1 00f0
0001c2 0000
0001c3 0400      	.DB  0x1C,0x0,0xF0,0x0,0x0,0x0,0x0,0x4
0001c4 001e
0001c5 00f0
0001c6 0000
0001c7 0400      	.DB  0x1E,0x0,0xF0,0x0,0x0,0x0,0x0,0x4
0001c8 001e
0001c9 00f0
0001ca 0000
0001cb 0400      	.DB  0x1E,0x0,0xF0,0x0,0x0,0x0,0x0,0x4
0001cc 001e
0001cd 00f0
0001ce 007f
0001cf 0c00      	.DB  0x1E,0x0,0xF0,0x0,0x7F,0x0,0x0,0xC
0001d0 001e
0001d1 0078
0001d2 c07f
0001d3 0800      	.DB  0x1E,0x0,0x78,0x0,0x7F,0xC0,0x0,0x8
0001d4 000e
0001d5 0078
0001d6 e01f
0001d7 0800      	.DB  0xE,0x0,0x78,0x0,0x1F,0xE0,0x0,0x8
0001d8 000e
0001d9 0078
0001da e00f
0001db 0800      	.DB  0xE,0x0,0x78,0x0,0xF,0xE0,0x0,0x8
0001dc 000f
0001dd 003c
0001de e007
0001df 0800      	.DB  0xF,0x0,0x3C,0x0,0x7,0xE0,0x0,0x8
0001e0 0007
0001e1 003c
0001e2 e007
0001e3 1000      	.DB  0x7,0x0,0x3C,0x0,0x7,0xE0,0x0,0x10
0001e4 8007
0001e5 001e
0001e6 e00f
0001e7 1000      	.DB  0x7,0x80,0x1E,0x0,0xF,0xE0,0x0,0x10
0001e8 8007
0001e9 000e
0001ea c01f
0001eb 3000      	.DB  0x7,0x80,0xE,0x0,0x1F,0xC0,0x0,0x30
0001ec 8003
0001ed 0007
0001ee 807f
0001ef 2000      	.DB  0x3,0x80,0x7,0x0,0x7F,0x80,0x0,0x20
0001f0 c003
0001f1 8003
0001f2 007e
0001f3 6000      	.DB  0x3,0xC0,0x3,0x80,0x7E,0x0,0x0,0x60
0001f4 e001
0001f5 8001
0001f6 0000
0001f7 4000      	.DB  0x1,0xE0,0x1,0x80,0x0,0x0,0x0,0x40
0001f8 e001
0001f9 0000
0001fa 0000
0001fb c000      	.DB  0x1,0xE0,0x0,0x0,0x0,0x0,0x0,0xC0
0001fc f000
0001fd 0000
0001fe 0000
0001ff 8000      	.DB  0x0,0xF0,0x0,0x0,0x0,0x0,0x0,0x80
000200 7800
000201 0000
000202 0000
000203 0001      	.DB  0x0,0x78,0x0,0x0,0x0,0x0,0x1,0x0
000204 7c00
000205 0000
000206 0000
000207 0002      	.DB  0x0,0x7C,0x0,0x0,0x0,0x0,0x2,0x0
000208 3e00
000209 0000
00020a 0000
00020b 0006      	.DB  0x0,0x3E,0x0,0x0,0x0,0x0,0x6,0x0
00020c 1f00
00020d 0000
00020e 0000
00020f 000c      	.DB  0x0,0x1F,0x0,0x0,0x0,0x0,0xC,0x0
000210 0f00
000211 0080
000212 0000
000213 0038      	.DB  0x0,0xF,0x80,0x0,0x0,0x0,0x38,0x0
000214 0700
000215 00e0
000216 0000
000217 0070      	.DB  0x0,0x7,0xE0,0x0,0x0,0x0,0x70,0x0
000218 0100
000219 00f0
00021a 0100
00021b 00c0      	.DB  0x0,0x1,0xF0,0x0,0x0,0x1,0xC0,0x0
00021c 0000
00021d 00fc
00021e 0700
00021f 0080      	.DB  0x0,0x0,0xFC,0x0,0x0,0x7,0x80,0x0
000220 0000
000221 003f
000222 1e00
000223 0000      	.DB  0x0,0x0,0x3F,0x0,0x0,0x1E,0x0,0x0
000224 0000
000225 f01f
000226 fc01
000227 0000      	.DB  0x0,0x0,0x1F,0xF0,0x1,0xFC,0x0,0x0
000228 0000
000229 ff03
00022a e0ff
00022b 0000      	.DB  0x0,0x0,0x3,0xFF,0xFF,0xE0,0x0,0x0
00022c 0000
00022d ff00
00022e 00ff
00022f 0000      	.DB  0x0,0x0,0x0,0xFF,0xFF,0x0,0x0,0x0
000230 0000
000231 0300
000232 00e0
000233 0000      	.DB  0x0,0x0,0x0,0x3,0xE0,0x0,0x0,0x0
000234 0000
000235 0000
000236 0000
000237 0000      	.DB  0x0,0x0,0x0,0x0,0x0,0x0,0x0,0x0
000238 0000
000239 0000
00023a 0000
00023b 0000      	.DB  0x0,0x0,0x0,0x0,0x0,0x0,0x0,0x0
00023c 0000
00023d 0000
00023e 0000
00023f 0000      	.DB  0x0,0x0,0x0,0x0,0x0,0x0,0x0,0x0
000240 0000
000241 0000
000242 0000
000243 0000      	.DB  0x0,0x0,0x0,0x0,0x0,0x0,0x0,0x0
000244 0000
000245 0000
000246 0000
000247 0000      	.DB  0x0,0x0,0x0,0x0,0x0,0x0,0x0,0x0
000248 0000
000249 0000
00024a 0000
00024b 0000      	.DB  0x0,0x0,0x0,0x0,0x0,0x0,0x0,0x0
00024c 0000
00024d 0000
00024e 0000
00024f 0000      	.DB  0x0,0x0,0x0,0x0,0x0,0x0,0x0,0x0
000250 0000
000251 0000
000252 0000
000253 0000      	.DB  0x0,0x0,0x0,0x0,0x0,0x0,0x0,0x0
000254 0000
000255 0000
000256 0000
000257 0000      	.DB  0x0,0x0,0x0,0x0,0x0,0x0,0x0,0x0
000258 0000
000259 0000
00025a 0000
00025b 0000      	.DB  0x0,0x0,0x0,0x0,0x0,0x0,0x0,0x0
00025c 0000
00025d 0000
00025e 0000
00025f 0000      	.DB  0x0,0x0,0x0,0x0,0x0,0x0,0x0,0x0
000260 0000
000261 0000
000262 0000
000263 0000      	.DB  0x0,0x0,0x0,0x0,0x0,0x0,0x0,0x0
000264 0000
000265 0000
000266 0000
000267 0000      	.DB  0x0,0x0,0x0,0x0,0x0,0x0,0x0,0x0
000268 0000
000269 0000
00026a 0000
00026b 0000      	.DB  0x0,0x0,0x0,0x0,0x0,0x0,0x0,0x0
00026c 0000
00026d 0000
00026e 0000
00026f 0000      	.DB  0x0,0x0,0x0,0x0,0x0,0x0,0x0,0x0
000270 0000
000271 0000
000272 0000
000273 0000      	.DB  0x0,0x0,0x0,0x0,0x0,0x0,0x0,0x0
000274 0000
000275 0000
000276 0000
000277 0000      	.DB  0x0,0x0,0x0,0x0,0x0,0x0,0x0,0x0
000278 0000
000279 0000
00027a 0000
00027b 0000      	.DB  0x0,0x0,0x0,0x0,0x0,0x0,0x0,0x0
00027c 0000
00027d 0000
00027e 0000
00027f 0000      	.DB  0x0,0x0,0x0,0x0,0x0,0x0,0x0,0x0
000280 0000
000281 0000
000282 0000
000283 0000      	.DB  0x0,0x0,0x0,0x0,0x0,0x0,0x0,0x0
000284 0000
000285 0000
000286 0000
000287 0000      	.DB  0x0,0x0,0x0,0x0,0x0,0x0,0x0,0x0
000288 0000
000289 0000
00028a 0000
00028b 0000      	.DB  0x0,0x0,0x0,0x0,0x0,0x0,0x0,0x0
00028c 0000
00028d 0000
00028e 0000
00028f 0000      	.DB  0x0,0x0,0x0,0x0,0x0,0x0,0x0,0x0
000290 0000
000291 0000
000292 0000
000293 0000      	.DB  0x0,0x0,0x0,0x0,0x0,0x0,0x0,0x0
000294 0000
000295 0000
000296 0000
000297 0000      	.DB  0x0,0x0,0x0,0x0,0x0,0x0,0x0,0x0
000298 0000
000299 0000
00029a 0000
00029b 0000      	.DB  0x0,0x0,0x0,0x0,0x0,0x0,0x0,0x0
00029c 0000
00029d 0000
00029e 0000
00029f 0000      	.DB  0x0,0x0,0x0,0x0,0x0,0x0,0x0,0x0
0002a0 0000
0002a1 0000
0002a2 0000
0002a3 0000      	.DB  0x0,0x0,0x0,0x0,0x0,0x0,0x0,0x0
0002a4 0000
0002a5 0000
0002a6 0000
0002a7 0000      	.DB  0x0,0x0,0x0,0x0,0x0,0x0,0x0,0x0
0002a8 0000
0002a9 0000
0002aa 0000
0002ab 0000      	.DB  0x0,0x0,0x0,0x0,0x0,0x0,0x0,0x0
0002ac 0000
0002ad 0000
0002ae 0000
0002af 0000      	.DB  0x0,0x0,0x0,0x0,0x0,0x0,0x0,0x0
0002b0 0000
0002b1 0000
0002b2 0000
0002b3 0000      	.DB  0x0,0x0,0x0,0x0,0x0,0x0,0x0,0x0
0002b4 0000
0002b5 0000
0002b6 0000
0002b7 0000      	.DB  0x0,0x0,0x0,0x0,0x0,0x0,0x0,0x0
0002b8 0000
0002b9 0000
0002ba 0000
0002bb 0000      	.DB  0x0,0x0,0x0,0x0,0x0,0x0,0x0,0x0
0002bc 0000
0002bd 0000
0002be 0000
0002bf 0000      	.DB  0x0,0x0,0x0,0x0,0x0,0x0,0x0,0x0
0002c0 0000
0002c1 0000
0002c2 0000
0002c3 0000      	.DB  0x0,0x0,0x0,0x0,0x0,0x0,0x0,0x0
0002c4 0000
0002c5 0000
0002c6 0000
0002c7 0000      	.DB  0x0,0x0,0x0,0x0,0x0,0x0,0x0,0x0
0002c8 0000
0002c9 0000
0002ca 0000
0002cb 0000      	.DB  0x0,0x0,0x0,0x0,0x0,0x0,0x0,0x0
0002cc 0000
0002cd 0000
0002ce 0000
0002cf 0000      	.DB  0x0,0x0,0x0,0x0,0x0,0x0,0x0,0x0
0002d0 0000
0002d1 0000
0002d2 0000
0002d3 0000      	.DB  0x0,0x0,0x0,0x0,0x0,0x0,0x0,0x0
0002d4 0000
0002d5 0000
0002d6 0000
0002d7 0000      	.DB  0x0,0x0,0x0,0x0,0x0,0x0,0x0,0x0
0002d8 0000
0002d9 0000
0002da 0000
0002db 0000      	.DB  0x0,0x0,0x0,0x0,0x0,0x0,0x0,0x0
0002dc 0000
0002dd 0000
0002de 0000
0002df 0000      	.DB  0x0,0x0,0x0,0x0,0x0,0x0,0x0,0x0
0002e0 0000
0002e1 0000
0002e2 0000
0002e3 0000      	.DB  0x0,0x0,0x0,0x0,0x0,0x0,0x0,0x0
0002e4 0000
0002e5 0000
0002e6 0000
0002e7 0000      	.DB  0x0,0x0,0x0,0x0,0x0,0x0,0x0,0x0
0002e8 0000
0002e9 0000
0002ea 0000
0002eb 0000      	.DB  0x0,0x0,0x0,0x0,0x0,0x0,0x0,0x0
0002ec 0000
0002ed 0000
0002ee 0000
0002ef 0000      	.DB  0x0,0x0,0x0,0x0,0x0,0x0,0x0,0x0
0002f0 0000
0002f1 0000
0002f2 0000
0002f3 0000      	.DB  0x0,0x0,0x0,0x0,0x0,0x0,0x0,0x0
0002f4 0000
0002f5 0000
0002f6 0000
0002f7 0000      	.DB  0x0,0x0,0x0,0x0,0x0,0x0,0x0,0x0
0002f8 0000
0002f9 0000
0002fa 0000
0002fb 0000      	.DB  0x0,0x0,0x0,0x0,0x0,0x0,0x0,0x0
0002fc 0000
0002fd 0000
0002fe 0000
0002ff 0000      	.DB  0x0,0x0,0x0,0x0,0x0,0x0,0x0,0x0
000300 0000
000301 0000
000302 0000
000303 0000      	.DB  0x0,0x0,0x0,0x0,0x0,0x0,0x0,0x0
000304 0000
000305 0000
000306 0000
000307 0000      	.DB  0x0,0x0,0x0,0x0,0x0,0x0,0x0,0x0
000308 0000
000309 0000
00030a 0000
00030b 0000      	.DB  0x0,0x0,0x0,0x0,0x0,0x0,0x0,0x0
00030c 0000
00030d 0000
00030e 0000
00030f 0000      	.DB  0x0,0x0,0x0,0x0,0x0,0x0,0x0,0x0
000310 0000
000311 0000
000312 0000
000313 0000      	.DB  0x0,0x0,0x0,0x0,0x0,0x0,0x0,0x0
000314 0000
000315 0000
000316 0000
000317 0000      	.DB  0x0,0x0,0x0,0x0,0x0,0x0,0x0,0x0
000318 0000
000319 0000
00031a 0000
00031b 0000      	.DB  0x0,0x0,0x0,0x0,0x0,0x0,0x0,0x0
00031c 0000
00031d 0000
00031e 0000
00031f 0000      	.DB  0x0,0x0,0x0,0x0,0x0,0x0,0x0,0x0
000320 0000
000321 0000
000322 0000
000323 0000      	.DB  0x0,0x0,0x0,0x0,0x0,0x0,0x0,0x0
000324 0000
000325 0000
000326 0000
000327 0000      	.DB  0x0,0x0,0x0,0x0,0x0,0x0,0x0,0x0
000328 0000
000329 0000
00032a 0000
00032b 0000      	.DB  0x0,0x0,0x0,0x0,0x0,0x0,0x0,0x0
00032c 0000
00032d 0000
00032e 0000
00032f 0000      	.DB  0x0,0x0,0x0,0x0,0x0,0x0,0x0,0x0
000330 0000
000331 0000
000332 0000
000333 0000      	.DB  0x0,0x0,0x0,0x0,0x0,0x0,0x0,0x0
000334 0000
000335 0000
000336 0000
000337 0000      	.DB  0x0,0x0,0x0,0x0,0x0,0x0,0x0,0x0
000338 0000
000339 0000
00033a 0000
00033b 0000      	.DB  0x0,0x0,0x0,0x0,0x0,0x0,0x0,0x0
00033c 0000
00033d 0000
00033e 0000
00033f 0000      	.DB  0x0,0x0,0x0,0x0,0x0,0x0,0x0,0x0
                 _screen2:
000340 0000
000341 0000
000342 0000
000343 0000      	.DB  0x0,0x0,0x0,0x0,0x0,0x0,0x0,0x0
000344 0000
000345 3f00
000346 00fc
000347 0000      	.DB  0x0,0x0,0x0,0x3F,0xFC,0x0,0x0,0x0
000348 0000
000349 ff03
00034a c0ff
00034b 0000      	.DB  0x0,0x0,0x3,0xFF,0xFF,0xC0,0x0,0x0
00034c 0000
00034d fc0f
00034e f01f
00034f 0000      	.DB  0x0,0x0,0xF,0xFC,0x1F,0xF0,0x0,0x0
000350 0000
000351 803f
000352 3c00
000353 0000      	.DB  0x0,0x0,0x3F,0x80,0x0,0x3C,0x0,0x0
000354 0000
000355 00fe
000356 0f00
000357 0000      	.DB  0x0,0x0,0xFE,0x0,0x0,0xF,0x0,0x0
000358 0100
000359 00f0
00035a 0100
00035b 0080      	.DB  0x0,0x1,0xF0,0x0,0x0,0x1,0x80,0x0
00035c 0700
00035d 00e0
00035e 0000
00035f 00c0      	.DB  0x0,0x7,0xE0,0x0,0x0,0x0,0xC0,0x0
000360 0f00
000361 0080
000362 0000
000363 0020      	.DB  0x0,0xF,0x80,0x0,0x0,0x0,0x20,0x0
000364 1f00
000365 0000
000366 0000
000367 0010      	.DB  0x0,0x1F,0x0,0x0,0x0,0x0,0x10,0x0
000368 3c00
000369 0000
00036a 0000
00036b 0008      	.DB  0x0,0x3C,0x0,0x0,0x0,0x0,0x8,0x0
00036c 3c00
00036d 0000
00036e 0000
00036f 0004      	.DB  0x0,0x3C,0x0,0x0,0x0,0x0,0x4,0x0
000370 7000
000371 0000
000372 0000
000373 0002      	.DB  0x0,0x70,0x0,0x0,0x0,0x0,0x2,0x0
000374 f000
000375 0000
000376 0000
000377 0000      	.DB  0x0,0xF0,0x0,0x0,0x0,0x0,0x0,0x0
000378 e001
000379 0000
00037a 0000
00037b 0000      	.DB  0x1,0xE0,0x0,0x0,0x0,0x0,0x0,0x0
00037c c001
00037d 8003
00037e 0000
00037f 8000      	.DB  0x1,0xC0,0x3,0x80,0x0,0x0,0x0,0x80
000380 c003
000381 8007
000382 0000
000383 0000      	.DB  0x3,0xC0,0x7,0x80,0x0,0x0,0x0,0x0
000384 8003
000385 8007
000386 000f
000387 4000      	.DB  0x3,0x80,0x7,0x80,0xF,0x0,0x0,0x40
000388 0007
000389 8007
00038a c03f
00038b 0000      	.DB  0x7,0x0,0x7,0x80,0x3F,0xC0,0x0,0x0
00038c 0007
00038d 8007
00038e e07f
00038f 2000      	.DB  0x7,0x0,0x7,0x80,0x7F,0xE0,0x0,0x20
000390 000f
000391 8007
000392 e07f
000393 0000      	.DB  0xF,0x0,0x7,0x80,0x7F,0xE0,0x0,0x0
000394 000f
000395 8007
000396 e07f
000397 1000      	.DB  0xF,0x0,0x7,0x80,0x7F,0xE0,0x0,0x10
000398 000e
000399 8007
00039a c03f
00039b 1000      	.DB  0xE,0x0,0x7,0x80,0x3F,0xC0,0x0,0x10
00039c 000e
00039d 8007
00039e 000f
00039f 1000      	.DB  0xE,0x0,0x7,0x80,0xF,0x0,0x0,0x10
0003a0 001e
0003a1 8007
0003a2 0000
0003a3 0000      	.DB  0x1E,0x0,0x7,0x80,0x0,0x0,0x0,0x0
0003a4 001c
0003a5 8007
0003a6 0000
0003a7 0000      	.DB  0x1C,0x0,0x7,0x80,0x0,0x0,0x0,0x0
0003a8 001c
0003a9 8007
0003aa 0000
0003ab 0800      	.DB  0x1C,0x0,0x7,0x80,0x0,0x0,0x0,0x8
0003ac 001c
0003ad 8007
0003ae 0000
0003af 0800      	.DB  0x1C,0x0,0x7,0x80,0x0,0x0,0x0,0x8
0003b0 001c
0003b1 8007
0003b2 0000
0003b3 0800      	.DB  0x1C,0x0,0x7,0x80,0x0,0x0,0x0,0x8
0003b4 001c
0003b5 8007
0003b6 0000
0003b7 0800      	.DB  0x1C,0x0,0x7,0x80,0x0,0x0,0x0,0x8
0003b8 001c
0003b9 8007
0003ba 0000
0003bb 0800      	.DB  0x1C,0x0,0x7,0x80,0x0,0x0,0x0,0x8
0003bc 001c
0003bd 8007
0003be 0000
0003bf 0800      	.DB  0x1C,0x0,0x7,0x80,0x0,0x0,0x0,0x8
0003c0 001c
0003c1 8007
0003c2 0000
0003c3 0800      	.DB  0x1C,0x0,0x7,0x80,0x0,0x0,0x0,0x8
0003c4 001c
0003c5 8007
0003c6 0000
0003c7 0800      	.DB  0x1C,0x0,0x7,0x80,0x0,0x0,0x0,0x8
0003c8 001c
0003c9 8007
0003ca 0000
0003cb 0000      	.DB  0x1C,0x0,0x7,0x80,0x0,0x0,0x0,0x0
0003cc 001c
0003cd 8007
0003ce 0000
0003cf 1000      	.DB  0x1C,0x0,0x7,0x80,0x0,0x0,0x0,0x10
0003d0 000e
0003d1 8007
0003d2 c01f
0003d3 1000      	.DB  0xE,0x0,0x7,0x80,0x1F,0xC0,0x0,0x10
0003d4 000e
0003d5 8007
0003d6 e07f
0003d7 1000      	.DB  0xE,0x0,0x7,0x80,0x7F,0xE0,0x0,0x10
0003d8 000f
0003d9 8007
0003da e07f
0003db 0000      	.DB  0xF,0x0,0x7,0x80,0x7F,0xE0,0x0,0x0
0003dc 0007
0003dd 8007
0003de e07f
0003df 2000      	.DB  0x7,0x0,0x7,0x80,0x7F,0xE0,0x0,0x20
0003e0 0007
0003e1 8007
0003e2 c03f
0003e3 2000      	.DB  0x7,0x0,0x7,0x80,0x3F,0xC0,0x0,0x20
0003e4 8007
0003e5 8007
0003e6 801f
0003e7 4000      	.DB  0x7,0x80,0x7,0x80,0x1F,0x80,0x0,0x40
0003e8 8003
0003e9 8007
0003ea 0000
0003eb 4000      	.DB  0x3,0x80,0x7,0x80,0x0,0x0,0x0,0x40
0003ec c003
0003ed 8007
0003ee 0000
0003ef 0000      	.DB  0x3,0xC0,0x7,0x80,0x0,0x0,0x0,0x0
0003f0 c001
0003f1 0003
0003f2 0000
0003f3 0000      	.DB  0x1,0xC0,0x3,0x0,0x0,0x0,0x0,0x0
0003f4 e000
0003f5 0000
0003f6 0000
0003f7 0000      	.DB  0x0,0xE0,0x0,0x0,0x0,0x0,0x0,0x0
0003f8 f000
0003f9 0000
0003fa 0000
0003fb 0000      	.DB  0x0,0xF0,0x0,0x0,0x0,0x0,0x0,0x0
0003fc 7800
0003fd 0000
0003fe 0000
0003ff 0000      	.DB  0x0,0x78,0x0,0x0,0x0,0x0,0x0,0x0
000400 3c00
000401 0000
000402 0000
000403 0004      	.DB  0x0,0x3C,0x0,0x0,0x0,0x0,0x4,0x0
000404 1e00
000405 0000
000406 0000
000407 0008      	.DB  0x0,0x1E,0x0,0x0,0x0,0x0,0x8,0x0
000408 0f00
000409 0000
00040a 0000
00040b 0010      	.DB  0x0,0xF,0x0,0x0,0x0,0x0,0x10,0x0
00040c 0700
00040d 00c0
00040e 0000
00040f 0060      	.DB  0x0,0x7,0xC0,0x0,0x0,0x0,0x60,0x0
000410 0300
000411 00e0
000412 0000
000413 0080      	.DB  0x0,0x3,0xE0,0x0,0x0,0x0,0x80,0x0
000414 0000
000415 00f8
000416 0300
000417 0000      	.DB  0x0,0x0,0xF8,0x0,0x0,0x3,0x0,0x0
000418 0000
000419 007e
00041a 0e00
00041b 0000      	.DB  0x0,0x0,0x7E,0x0,0x0,0xE,0x0,0x0
00041c 0000
00041d e01f
00041e f800
00041f 0000      	.DB  0x0,0x0,0x1F,0xE0,0x0,0xF8,0x0,0x0
000420 0000
000421 ff07
000422 e0ff
000423 0000      	.DB  0x0,0x0,0x7,0xFF,0xFF,0xE0,0x0,0x0
000424 0000
000425 ff00
000426 00ff
000427 0000      	.DB  0x0,0x0,0x0,0xFF,0xFF,0x0,0x0,0x0
000428 0000
000429 0700
00042a 00c0
00042b 0000      	.DB  0x0,0x0,0x0,0x7,0xC0,0x0,0x0,0x0
00042c 0000
00042d 0000
00042e 0000
00042f 0000      	.DB  0x0,0x0,0x0,0x0,0x0,0x0,0x0,0x0
000430 0000
000431 0000
000432 0000
000433 0000      	.DB  0x0,0x0,0x0,0x0,0x0,0x0,0x0,0x0
000434 0000
000435 0000
000436 0000
000437 0000      	.DB  0x0,0x0,0x0,0x0,0x0,0x0,0x0,0x0
000438 0000
000439 0000
00043a 0000
00043b 0000      	.DB  0x0,0x0,0x0,0x0,0x0,0x0,0x0,0x0
00043c 0000
00043d 0000
00043e 0000
00043f 0000      	.DB  0x0,0x0,0x0,0x0,0x0,0x0,0x0,0x0
000440 0000
000441 0000
000442 0000
000443 0000      	.DB  0x0,0x0,0x0,0x0,0x0,0x0,0x0,0x0
000444 0000
000445 0000
000446 0000
000447 0000      	.DB  0x0,0x0,0x0,0x0,0x0,0x0,0x0,0x0
000448 0000
000449 0000
00044a 0000
00044b 0000      	.DB  0x0,0x0,0x0,0x0,0x0,0x0,0x0,0x0
00044c 0000
00044d 0000
00044e 0000
00044f 0000      	.DB  0x0,0x0,0x0,0x0,0x0,0x0,0x0,0x0
000450 0000
000451 0000
000452 0000
000453 0000      	.DB  0x0,0x0,0x0,0x0,0x0,0x0,0x0,0x0
000454 0000
000455 0000
000456 0000
000457 0000      	.DB  0x0,0x0,0x0,0x0,0x0,0x0,0x0,0x0
000458 0000
000459 0000
00045a 0000
00045b 0000      	.DB  0x0,0x0,0x0,0x0,0x0,0x0,0x0,0x0
00045c 0000
00045d 0000
00045e 0000
00045f 0000      	.DB  0x0,0x0,0x0,0x0,0x0,0x0,0x0,0x0
000460 0000
000461 0000
000462 0000
000463 0000      	.DB  0x0,0x0,0x0,0x0,0x0,0x0,0x0,0x0
000464 0000
000465 0000
000466 0000
000467 0000      	.DB  0x0,0x0,0x0,0x0,0x0,0x0,0x0,0x0
000468 0000
000469 0000
00046a 0000
00046b 0000      	.DB  0x0,0x0,0x0,0x0,0x0,0x0,0x0,0x0
00046c 0000
00046d 0000
00046e 0000
00046f 0000      	.DB  0x0,0x0,0x0,0x0,0x0,0x0,0x0,0x0
000470 0000
000471 0000
000472 0000
000473 0000      	.DB  0x0,0x0,0x0,0x0,0x0,0x0,0x0,0x0
000474 0000
000475 0000
000476 0000
000477 0000      	.DB  0x0,0x0,0x0,0x0,0x0,0x0,0x0,0x0
000478 0000
000479 0000
00047a 0000
00047b 0000      	.DB  0x0,0x0,0x0,0x0,0x0,0x0,0x0,0x0
00047c 0000
00047d 0000
00047e 0000
00047f 0000      	.DB  0x0,0x0,0x0,0x0,0x0,0x0,0x0,0x0
000480 0000
000481 0000
000482 0000
000483 0000      	.DB  0x0,0x0,0x0,0x0,0x0,0x0,0x0,0x0
000484 0000
000485 0000
000486 0000
000487 0000      	.DB  0x0,0x0,0x0,0x0,0x0,0x0,0x0,0x0
000488 0000
000489 0000
00048a 0000
00048b 0000      	.DB  0x0,0x0,0x0,0x0,0x0,0x0,0x0,0x0
00048c 0000
00048d 0000
00048e 0000
00048f 0000      	.DB  0x0,0x0,0x0,0x0,0x0,0x0,0x0,0x0
000490 0000
000491 0000
000492 0000
000493 0000      	.DB  0x0,0x0,0x0,0x0,0x0,0x0,0x0,0x0
000494 0000
000495 0000
000496 0000
000497 0000      	.DB  0x0,0x0,0x0,0x0,0x0,0x0,0x0,0x0
000498 0000
000499 0000
00049a 0000
00049b 0000      	.DB  0x0,0x0,0x0,0x0,0x0,0x0,0x0,0x0
00049c 0000
00049d 0000
00049e 0000
00049f 0000      	.DB  0x0,0x0,0x0,0x0,0x0,0x0,0x0,0x0
0004a0 0000
0004a1 0000
0004a2 0000
0004a3 0000      	.DB  0x0,0x0,0x0,0x0,0x0,0x0,0x0,0x0
0004a4 0000
0004a5 0000
0004a6 0000
0004a7 0000      	.DB  0x0,0x0,0x0,0x0,0x0,0x0,0x0,0x0
0004a8 0000
0004a9 0000
0004aa 0000
0004ab 0000      	.DB  0x0,0x0,0x0,0x0,0x0,0x0,0x0,0x0
0004ac 0000
0004ad 0000
0004ae 0000
0004af 0000      	.DB  0x0,0x0,0x0,0x0,0x0,0x0,0x0,0x0
0004b0 0000
0004b1 0000
0004b2 0000
0004b3 0000      	.DB  0x0,0x0,0x0,0x0,0x0,0x0,0x0,0x0
0004b4 0000
0004b5 0000
0004b6 0000
0004b7 0000      	.DB  0x0,0x0,0x0,0x0,0x0,0x0,0x0,0x0
0004b8 0000
0004b9 0000
0004ba 0000
0004bb 0000      	.DB  0x0,0x0,0x0,0x0,0x0,0x0,0x0,0x0
0004bc 0000
0004bd 0000
0004be 0000
0004bf 0000      	.DB  0x0,0x0,0x0,0x0,0x0,0x0,0x0,0x0
0004c0 0000
0004c1 0000
0004c2 0000
0004c3 0000      	.DB  0x0,0x0,0x0,0x0,0x0,0x0,0x0,0x0
0004c4 0000
0004c5 0000
0004c6 0000
0004c7 0000      	.DB  0x0,0x0,0x0,0x0,0x0,0x0,0x0,0x0
0004c8 0000
0004c9 0000
0004ca 0000
0004cb 0000      	.DB  0x0,0x0,0x0,0x0,0x0,0x0,0x0,0x0
0004cc 0000
0004cd 0000
0004ce 0000
0004cf 0000      	.DB  0x0,0x0,0x0,0x0,0x0,0x0,0x0,0x0
0004d0 0000
0004d1 0000
0004d2 0000
0004d3 0000      	.DB  0x0,0x0,0x0,0x0,0x0,0x0,0x0,0x0
0004d4 0000
0004d5 0000
0004d6 0000
0004d7 0000      	.DB  0x0,0x0,0x0,0x0,0x0,0x0,0x0,0x0
0004d8 0000
0004d9 0000
0004da 0000
0004db 0000      	.DB  0x0,0x0,0x0,0x0,0x0,0x0,0x0,0x0
0004dc 0000
0004dd 0000
0004de 0000
0004df 0000      	.DB  0x0,0x0,0x0,0x0,0x0,0x0,0x0,0x0
0004e0 0000
0004e1 0000
0004e2 0000
0004e3 0000      	.DB  0x0,0x0,0x0,0x0,0x0,0x0,0x0,0x0
0004e4 0000
0004e5 0000
0004e6 0000
0004e7 0000      	.DB  0x0,0x0,0x0,0x0,0x0,0x0,0x0,0x0
0004e8 0000
0004e9 0000
0004ea 0000
0004eb 0000      	.DB  0x0,0x0,0x0,0x0,0x0,0x0,0x0,0x0
0004ec 0000
0004ed 0000
0004ee 0000
0004ef 0000      	.DB  0x0,0x0,0x0,0x0,0x0,0x0,0x0,0x0
0004f0 0000
0004f1 0000
0004f2 0000
0004f3 0000      	.DB  0x0,0x0,0x0,0x0,0x0,0x0,0x0,0x0
0004f4 0000
0004f5 0000
0004f6 0000
0004f7 0000      	.DB  0x0,0x0,0x0,0x0,0x0,0x0,0x0,0x0
0004f8 0000
0004f9 0000
0004fa 0000
0004fb 0000      	.DB  0x0,0x0,0x0,0x0,0x0,0x0,0x0,0x0
0004fc 0000
0004fd 0000
0004fe 0000
0004ff 0000      	.DB  0x0,0x0,0x0,0x0,0x0,0x0,0x0,0x0
000500 0000
000501 0000
000502 0000
000503 0000      	.DB  0x0,0x0,0x0,0x0,0x0,0x0,0x0,0x0
000504 0000
000505 0000
000506 0000
000507 0000      	.DB  0x0,0x0,0x0,0x0,0x0,0x0,0x0,0x0
000508 0000
000509 0000
00050a 0000
00050b 0000      	.DB  0x0,0x0,0x0,0x0,0x0,0x0,0x0,0x0
00050c 0000
00050d 0000
00050e 0000
00050f 0000      	.DB  0x0,0x0,0x0,0x0,0x0,0x0,0x0,0x0
000510 0000
000511 0000
000512 0000
000513 0000      	.DB  0x0,0x0,0x0,0x0,0x0,0x0,0x0,0x0
000514 0000
000515 0000
000516 0000
000517 0000      	.DB  0x0,0x0,0x0,0x0,0x0,0x0,0x0,0x0
000518 0000
000519 0000
00051a 0000
00051b 0000      	.DB  0x0,0x0,0x0,0x0,0x0,0x0,0x0,0x0
00051c 0000
00051d 0000
00051e 0000
00051f 0000      	.DB  0x0,0x0,0x0,0x0,0x0,0x0,0x0,0x0
000520 0000
000521 0000
000522 0000
000523 0000      	.DB  0x0,0x0,0x0,0x0,0x0,0x0,0x0,0x0
000524 0000
000525 0000
000526 0000
000527 0000      	.DB  0x0,0x0,0x0,0x0,0x0,0x0,0x0,0x0
000528 0000
000529 0000
00052a 0000
00052b 0000      	.DB  0x0,0x0,0x0,0x0,0x0,0x0,0x0,0x0
00052c 0000
00052d 0000
00052e 0000
00052f 0000      	.DB  0x0,0x0,0x0,0x0,0x0,0x0,0x0,0x0
000530 0000
000531 0000
000532 0000
000533 0000      	.DB  0x0,0x0,0x0,0x0,0x0,0x0,0x0,0x0
000534 0000
000535 0000
000536 0000
000537 0000      	.DB  0x0,0x0,0x0,0x0,0x0,0x0,0x0,0x0
000538 0000
000539 0000
00053a 0000
00053b 0000      	.DB  0x0,0x0,0x0,0x0,0x0,0x0,0x0,0x0
00053c 0000
00053d 0000
00053e 0000
00053f 0000      	.DB  0x0,0x0,0x0,0x0,0x0,0x0,0x0,0x0
                 _screen3:
000540 0000
000541 0000
000542 0000
000543 0000      	.DB  0x0,0x0,0x0,0x0,0x0,0x0,0x0,0x0
000544 0000
000545 0300
000546 0000
000547 0000      	.DB  0x0,0x0,0x0,0x3,0x0,0x0,0x0,0x0
000548 0000
000549 ff01
00054a 00fe
00054b 0000      	.DB  0x0,0x0,0x1,0xFF,0xFE,0x0,0x0,0x0
00054c 0000
00054d ff0f
00054e c0ff
00054f 0000      	.DB  0x0,0x0,0xF,0xFF,0xFF,0xC0,0x0,0x0
000550 0000
000551 c03f
000552 f001
000553 0000      	.DB  0x0,0x0,0x3F,0xC0,0x1,0xF0,0x0,0x0
000554 0000
000555 00fe
000556 3c00
000557 0000      	.DB  0x0,0x0,0xFE,0x0,0x0,0x3C,0x0,0x0
000558 0100
000559 00f0
00055a 0600
00055b 0000      	.DB  0x0,0x1,0xF0,0x0,0x0,0x6,0x0,0x0
00055c 0700
00055d 00e0
00055e 0100
00055f 0080      	.DB  0x0,0x7,0xE0,0x0,0x0,0x1,0x80,0x0
000560 0f00
000561 0080
000562 0000
000563 0040      	.DB  0x0,0xF,0x80,0x0,0x0,0x0,0x40,0x0
000564 1f00
000565 0000
000566 0000
000567 0020      	.DB  0x0,0x1F,0x0,0x0,0x0,0x0,0x20,0x0
000568 3c00
000569 0000
00056a 0000
00056b 0010      	.DB  0x0,0x3C,0x0,0x0,0x0,0x0,0x10,0x0
00056c 7800
00056d 0000
00056e 0000
00056f 0008      	.DB  0x0,0x78,0x0,0x0,0x0,0x0,0x8,0x0
000570 f000
000571 0000
000572 0000
000573 0004      	.DB  0x0,0xF0,0x0,0x0,0x0,0x0,0x4,0x0
000574 e001
000575 0000
000576 0000
000577 0000      	.DB  0x1,0xE0,0x0,0x0,0x0,0x0,0x0,0x0
000578 c001
000579 0000
00057a 0000
00057b 0000      	.DB  0x1,0xC0,0x0,0x0,0x0,0x0,0x0,0x0
00057c c003
00057d 0000
00057e 0018
00057f 0000      	.DB  0x3,0xC0,0x0,0x0,0x18,0x0,0x0,0x0
000580 8007
000581 0000
000582 0018
000583 0000      	.DB  0x7,0x80,0x0,0x0,0x18,0x0,0x0,0x0
000584 0007
000585 0000
000586 0018
000587 0000      	.DB  0x7,0x0,0x0,0x0,0x18,0x0,0x0,0x0
000588 000f
000589 0000
00058a 0038
00058b 0000      	.DB  0xF,0x0,0x0,0x0,0x38,0x0,0x0,0x0
00058c 000f
00058d 3000
00058e 0038
00058f 4000      	.DB  0xF,0x0,0x0,0x30,0x38,0x0,0x0,0x40
000590 000e
000591 fc01
000592 0030
000593 0000      	.DB  0xE,0x0,0x1,0xFC,0x30,0x0,0x0,0x0
000594 001e
000595 fe03
000596 0070
000597 2000      	.DB  0x1E,0x0,0x3,0xFE,0x70,0x0,0x0,0x20
000598 081c
000599 fe03
00059a 0060
00059b 0000      	.DB  0x1C,0x8,0x3,0xFE,0x60,0x0,0x0,0x0
00059c 0e1c
00059d fe03
00059e 00e0
00059f 0000      	.DB  0x1C,0xE,0x3,0xFE,0xE0,0x0,0x0,0x0
0005a0 073c
0005a1 fd01
0005a2 00c0
0005a3 0000      	.DB  0x3C,0x7,0x1,0xFD,0xC0,0x0,0x0,0x0
0005a4 073c
0005a5 fb80
0005a6 0080
0005a7 1000      	.DB  0x3C,0x7,0x80,0xFB,0x80,0x0,0x0,0x10
0005a8 0338
0005a9 03c0
0005aa 0000
0005ab 1000      	.DB  0x38,0x3,0xC0,0x3,0x0,0x0,0x0,0x10
0005ac 0338
0005ad 00c0
0005ae 0000
0005af 0000      	.DB  0x38,0x3,0xC0,0x0,0x0,0x0,0x0,0x0
0005b0 0338
0005b1 00c0
0005b2 0000
0005b3 0000      	.DB  0x38,0x3,0xC0,0x0,0x0,0x0,0x0,0x0
0005b4 0338
0005b5 00e0
0005b6 0000
0005b7 0000      	.DB  0x38,0x3,0xE0,0x0,0x0,0x0,0x0,0x0
0005b8 0338
0005b9 00e0
0005ba 0000
0005bb 0000      	.DB  0x38,0x3,0xE0,0x0,0x0,0x0,0x0,0x0
0005bc 0338
0005bd 00e0
0005be 0000
0005bf 0000      	.DB  0x38,0x3,0xE0,0x0,0x0,0x0,0x0,0x0
0005c0 0338
0005c1 00c0
0005c2 0000
0005c3 0000      	.DB  0x38,0x3,0xC0,0x0,0x0,0x0,0x0,0x0
0005c4 0338
0005c5 00c0
0005c6 0000
0005c7 0000      	.DB  0x38,0x3,0xC0,0x0,0x0,0x0,0x0,0x0
0005c8 0738
0005c9 0280
0005ca 0000
0005cb 1000      	.DB  0x38,0x7,0x80,0x2,0x0,0x0,0x0,0x10
0005cc 073c
0005cd fb80
0005ce 0080
0005cf 1000      	.DB  0x3C,0x7,0x80,0xFB,0x80,0x0,0x0,0x10
0005d0 0f1c
0005d1 ff01
0005d2 00c0
0005d3 0000      	.DB  0x1C,0xF,0x1,0xFF,0xC0,0x0,0x0,0x0
0005d4 0c1c
0005d5 fe03
0005d6 00e0
0005d7 0000      	.DB  0x1C,0xC,0x3,0xFE,0xE0,0x0,0x0,0x0
0005d8 001c
0005d9 fe03
0005da 00e0
0005db 0000      	.DB  0x1C,0x0,0x3,0xFE,0xE0,0x0,0x0,0x0
0005dc 001e
0005dd fe03
0005de 0070
0005df 2000      	.DB  0x1E,0x0,0x3,0xFE,0x70,0x0,0x0,0x20
0005e0 000e
0005e1 fc01
0005e2 0030
0005e3 0000      	.DB  0xE,0x0,0x1,0xFC,0x30,0x0,0x0,0x0
0005e4 000e
0005e5 3000
0005e6 0038
0005e7 4000      	.DB  0xE,0x0,0x0,0x30,0x38,0x0,0x0,0x40
0005e8 000f
0005e9 0000
0005ea 0038
0005eb 0000      	.DB  0xF,0x0,0x0,0x0,0x38,0x0,0x0,0x0
0005ec 0007
0005ed 0000
0005ee 0018
0005ef 0000      	.DB  0x7,0x0,0x0,0x0,0x18,0x0,0x0,0x0
0005f0 8007
0005f1 0000
0005f2 0018
0005f3 0000      	.DB  0x7,0x80,0x0,0x0,0x18,0x0,0x0,0x0
0005f4 c003
0005f5 0000
0005f6 0018
0005f7 0000      	.DB  0x3,0xC0,0x0,0x0,0x18,0x0,0x0,0x0
0005f8 c001
0005f9 0000
0005fa 0000
0005fb 0000      	.DB  0x1,0xC0,0x0,0x0,0x0,0x0,0x0,0x0
0005fc e001
0005fd 0000
0005fe 0000
0005ff 0000      	.DB  0x1,0xE0,0x0,0x0,0x0,0x0,0x0,0x0
000600 f000
000601 0000
000602 0000
000603 0000      	.DB  0x0,0xF0,0x0,0x0,0x0,0x0,0x0,0x0
000604 7800
000605 0000
000606 0000
000607 0008      	.DB  0x0,0x78,0x0,0x0,0x0,0x0,0x8,0x0
000608 3c00
000609 0000
00060a 0000
00060b 0010      	.DB  0x0,0x3C,0x0,0x0,0x0,0x0,0x10,0x0
00060c 1e00
00060d 0000
00060e 0000
00060f 0020      	.DB  0x0,0x1E,0x0,0x0,0x0,0x0,0x20,0x0
000610 0f00
000611 0080
000612 0000
000613 0040      	.DB  0x0,0xF,0x80,0x0,0x0,0x0,0x40,0x0
000614 0700
000615 00c0
000616 0100
000617 0080      	.DB  0x0,0x7,0xC0,0x0,0x0,0x1,0x80,0x0
000618 0100
000619 00f0
00061a 0200
00061b 0000      	.DB  0x0,0x1,0xF0,0x0,0x0,0x2,0x0,0x0
00061c 0000
00061d 00fe
00061e 1c00
00061f 0000      	.DB  0x0,0x0,0xFE,0x0,0x0,0x1C,0x0,0x0
000620 0000
000621 803f
000622 f000
000623 0000      	.DB  0x0,0x0,0x3F,0x80,0x0,0xF0,0x0,0x0
000624 0000
000625 ff0f
000626 c0ff
000627 0000      	.DB  0x0,0x0,0xF,0xFF,0xFF,0xC0,0x0,0x0
000628 0000
000629 ff01
00062a 00fe
00062b 0000      	.DB  0x0,0x0,0x1,0xFF,0xFE,0x0,0x0,0x0
00062c 0000
00062d 0700
00062e 0080
00062f 0000      	.DB  0x0,0x0,0x0,0x7,0x80,0x0,0x0,0x0
000630 0000
000631 0000
000632 0000
000633 0000      	.DB  0x0,0x0,0x0,0x0,0x0,0x0,0x0,0x0
000634 0000
000635 0000
000636 0000
000637 0000      	.DB  0x0,0x0,0x0,0x0,0x0,0x0,0x0,0x0
000638 0000
000639 0000
00063a 0000
00063b 0000      	.DB  0x0,0x0,0x0,0x0,0x0,0x0,0x0,0x0
00063c 0000
00063d 0000
00063e 0000
00063f 0000      	.DB  0x0,0x0,0x0,0x0,0x0,0x0,0x0,0x0
000640 0000
000641 0000
000642 0000
000643 0000      	.DB  0x0,0x0,0x0,0x0,0x0,0x0,0x0,0x0
000644 0000
000645 0000
000646 0000
000647 0000      	.DB  0x0,0x0,0x0,0x0,0x0,0x0,0x0,0x0
000648 0000
000649 0000
00064a 0000
00064b 0000      	.DB  0x0,0x0,0x0,0x0,0x0,0x0,0x0,0x0
00064c 0000
00064d 0000
00064e 0000
00064f 0000      	.DB  0x0,0x0,0x0,0x0,0x0,0x0,0x0,0x0
000650 0000
000651 0000
000652 0000
000653 0000      	.DB  0x0,0x0,0x0,0x0,0x0,0x0,0x0,0x0
000654 0000
000655 0000
000656 0000
000657 0000      	.DB  0x0,0x0,0x0,0x0,0x0,0x0,0x0,0x0
000658 0000
000659 0000
00065a 0000
00065b 0000      	.DB  0x0,0x0,0x0,0x0,0x0,0x0,0x0,0x0
00065c 0000
00065d 0000
00065e 0000
00065f 0000      	.DB  0x0,0x0,0x0,0x0,0x0,0x0,0x0,0x0
000660 0000
000661 0000
000662 0000
000663 0000      	.DB  0x0,0x0,0x0,0x0,0x0,0x0,0x0,0x0
000664 0000
000665 0000
000666 0000
000667 0000      	.DB  0x0,0x0,0x0,0x0,0x0,0x0,0x0,0x0
000668 0000
000669 0000
00066a 0000
00066b 0000      	.DB  0x0,0x0,0x0,0x0,0x0,0x0,0x0,0x0
00066c 0000
00066d 0000
00066e 0000
00066f 0000      	.DB  0x0,0x0,0x0,0x0,0x0,0x0,0x0,0x0
000670 0000
000671 0000
000672 0000
000673 0000      	.DB  0x0,0x0,0x0,0x0,0x0,0x0,0x0,0x0
000674 0000
000675 0000
000676 0000
000677 0000      	.DB  0x0,0x0,0x0,0x0,0x0,0x0,0x0,0x0
000678 0000
000679 0000
00067a 0000
00067b 0000      	.DB  0x0,0x0,0x0,0x0,0x0,0x0,0x0,0x0
00067c 0000
00067d 0000
00067e 0000
00067f 0000      	.DB  0x0,0x0,0x0,0x0,0x0,0x0,0x0,0x0
000680 0000
000681 0000
000682 0000
000683 0000      	.DB  0x0,0x0,0x0,0x0,0x0,0x0,0x0,0x0
000684 0000
000685 0000
000686 0000
000687 0000      	.DB  0x0,0x0,0x0,0x0,0x0,0x0,0x0,0x0
000688 0000
000689 0000
00068a 0000
00068b 0000      	.DB  0x0,0x0,0x0,0x0,0x0,0x0,0x0,0x0
00068c 0000
00068d 0000
00068e 0000
00068f 0000      	.DB  0x0,0x0,0x0,0x0,0x0,0x0,0x0,0x0
000690 0000
000691 0000
000692 0000
000693 0000      	.DB  0x0,0x0,0x0,0x0,0x0,0x0,0x0,0x0
000694 0000
000695 0000
000696 0000
000697 0000      	.DB  0x0,0x0,0x0,0x0,0x0,0x0,0x0,0x0
000698 0000
000699 0000
00069a 0000
00069b 0000      	.DB  0x0,0x0,0x0,0x0,0x0,0x0,0x0,0x0
00069c 0000
00069d 0000
00069e 0000
00069f 0000      	.DB  0x0,0x0,0x0,0x0,0x0,0x0,0x0,0x0
0006a0 0000
0006a1 0000
0006a2 0000
0006a3 0000      	.DB  0x0,0x0,0x0,0x0,0x0,0x0,0x0,0x0
0006a4 0000
0006a5 0000
0006a6 0000
0006a7 0000      	.DB  0x0,0x0,0x0,0x0,0x0,0x0,0x0,0x0
0006a8 0000
0006a9 0000
0006aa 0000
0006ab 0000      	.DB  0x0,0x0,0x0,0x0,0x0,0x0,0x0,0x0
0006ac 0000
0006ad 0000
0006ae 0000
0006af 0000      	.DB  0x0,0x0,0x0,0x0,0x0,0x0,0x0,0x0
0006b0 0000
0006b1 0000
0006b2 0000
0006b3 0000      	.DB  0x0,0x0,0x0,0x0,0x0,0x0,0x0,0x0
0006b4 0000
0006b5 0000
0006b6 0000
0006b7 0000      	.DB  0x0,0x0,0x0,0x0,0x0,0x0,0x0,0x0
0006b8 0000
0006b9 0000
0006ba 0000
0006bb 0000      	.DB  0x0,0x0,0x0,0x0,0x0,0x0,0x0,0x0
0006bc 0000
0006bd 0000
0006be 0000
0006bf 0000      	.DB  0x0,0x0,0x0,0x0,0x0,0x0,0x0,0x0
0006c0 0000
0006c1 0000
0006c2 0000
0006c3 0000      	.DB  0x0,0x0,0x0,0x0,0x0,0x0,0x0,0x0
0006c4 0000
0006c5 0000
0006c6 0000
0006c7 0000      	.DB  0x0,0x0,0x0,0x0,0x0,0x0,0x0,0x0
0006c8 0000
0006c9 0000
0006ca 0000
0006cb 0000      	.DB  0x0,0x0,0x0,0x0,0x0,0x0,0x0,0x0
0006cc 0000
0006cd 0000
0006ce 0000
0006cf 0000      	.DB  0x0,0x0,0x0,0x0,0x0,0x0,0x0,0x0
0006d0 0000
0006d1 0000
0006d2 0000
0006d3 0000      	.DB  0x0,0x0,0x0,0x0,0x0,0x0,0x0,0x0
0006d4 0000
0006d5 0000
0006d6 0000
0006d7 0000      	.DB  0x0,0x0,0x0,0x0,0x0,0x0,0x0,0x0
0006d8 0000
0006d9 0000
0006da 0000
0006db 0000      	.DB  0x0,0x0,0x0,0x0,0x0,0x0,0x0,0x0
0006dc 0000
0006dd 0000
0006de 0000
0006df 0000      	.DB  0x0,0x0,0x0,0x0,0x0,0x0,0x0,0x0
0006e0 0000
0006e1 0000
0006e2 0000
0006e3 0000      	.DB  0x0,0x0,0x0,0x0,0x0,0x0,0x0,0x0
0006e4 0000
0006e5 0000
0006e6 0000
0006e7 0000      	.DB  0x0,0x0,0x0,0x0,0x0,0x0,0x0,0x0
0006e8 0000
0006e9 0000
0006ea 0000
0006eb 0000      	.DB  0x0,0x0,0x0,0x0,0x0,0x0,0x0,0x0
0006ec 0000
0006ed 0000
0006ee 0000
0006ef 0000      	.DB  0x0,0x0,0x0,0x0,0x0,0x0,0x0,0x0
0006f0 0000
0006f1 0000
0006f2 0000
0006f3 0000      	.DB  0x0,0x0,0x0,0x0,0x0,0x0,0x0,0x0
0006f4 0000
0006f5 0000
0006f6 0000
0006f7 0000      	.DB  0x0,0x0,0x0,0x0,0x0,0x0,0x0,0x0
0006f8 0000
0006f9 0000
0006fa 0000
0006fb 0000      	.DB  0x0,0x0,0x0,0x0,0x0,0x0,0x0,0x0
0006fc 0000
0006fd 0000
0006fe 0000
0006ff 0000      	.DB  0x0,0x0,0x0,0x0,0x0,0x0,0x0,0x0
000700 0000
000701 0000
000702 0000
000703 0000      	.DB  0x0,0x0,0x0,0x0,0x0,0x0,0x0,0x0
000704 0000
000705 0000
000706 0000
000707 0000      	.DB  0x0,0x0,0x0,0x0,0x0,0x0,0x0,0x0
000708 0000
000709 0000
00070a 0000
00070b 0000      	.DB  0x0,0x0,0x0,0x0,0x0,0x0,0x0,0x0
00070c 0000
00070d 0000
00070e 0000
00070f 0000      	.DB  0x0,0x0,0x0,0x0,0x0,0x0,0x0,0x0
000710 0000
000711 0000
000712 0000
000713 0000      	.DB  0x0,0x0,0x0,0x0,0x0,0x0,0x0,0x0
000714 0000
000715 0000
000716 0000
000717 0000      	.DB  0x0,0x0,0x0,0x0,0x0,0x0,0x0,0x0
000718 0000
000719 0000
00071a 0000
00071b 0000      	.DB  0x0,0x0,0x0,0x0,0x0,0x0,0x0,0x0
00071c 0000
00071d 0000
00071e 0000
00071f 0000      	.DB  0x0,0x0,0x0,0x0,0x0,0x0,0x0,0x0
000720 0000
000721 0000
000722 0000
000723 0000      	.DB  0x0,0x0,0x0,0x0,0x0,0x0,0x0,0x0
000724 0000
000725 0000
000726 0000
000727 0000      	.DB  0x0,0x0,0x0,0x0,0x0,0x0,0x0,0x0
000728 0000
000729 0000
00072a 0000
00072b 0000      	.DB  0x0,0x0,0x0,0x0,0x0,0x0,0x0,0x0
00072c 0000
00072d 0000
00072e 0000
00072f 0000      	.DB  0x0,0x0,0x0,0x0,0x0,0x0,0x0,0x0
000730 0000
000731 0000
000732 0000
000733 0000      	.DB  0x0,0x0,0x0,0x0,0x0,0x0,0x0,0x0
000734 0000
000735 0000
000736 0000
000737 0000      	.DB  0x0,0x0,0x0,0x0,0x0,0x0,0x0,0x0
000738 0000
000739 0000
00073a 0000
00073b 0000      	.DB  0x0,0x0,0x0,0x0,0x0,0x0,0x0,0x0
00073c 0000
00073d 0000
00073e 0000
00073f 0000      	.DB  0x0,0x0,0x0,0x0,0x0,0x0,0x0,0x0
                 _tbl10_G100:
000740 2710
000741 03e8
000742 0064
000743 000a      	.DB  0x10,0x27,0xE8,0x3,0x64,0x0,0xA,0x0
000744 0001      	.DB  0x1,0x0
                 _tbl16_G100:
000745 1000
000746 0100
000747 0010
000748 0001      	.DB  0x0,0x10,0x0,0x1,0x10,0x0,0x1,0x0
                 
                 ;GLOBAL REGISTER VARIABLES INITIALIZATION
                 __REG_VARS:
000749 0000
00074a 0000      	.DB  0x0,0x0,0x0,0x0
00074b 0000
00074c 0000      	.DB  0x0,0x0,0x0,0x0
00074d 0000      	.DB  0x0,0x0
                 
                 _0x3:
C:\Users\ragalia\Desktop\codevision\team_project\Debug\List\project.asm(1609): warning: .cseg .db misalignment - padding zero byte
00074e 0079      	.DB  0x79
                 _0x44:
C:\Users\ragalia\Desktop\codevision\team_project\Debug\List\project.asm(1611): warning: .cseg .db misalignment - padding zero byte
00074f 0001      	.DB  0x1
                 _0x0:
000750 7247
000751 6565
000752 206e
000753 2520      	.DB  0x47,0x72,0x65,0x65,0x6E,0x20,0x20,0x25
000754 2064
000755 6573
000756 0063
000757 000d      	.DB  0x64,0x20,0x73,0x65,0x63,0x0,0xD,0x0
000758 6552
000759 2064
00075a 2520
00075b 2064      	.DB  0x52,0x65,0x64,0x20,0x20,0x25,0x64,0x20
00075c 6573
00075d 0063
00075e 3225
00075f 0064      	.DB  0x73,0x65,0x63,0x0,0x25,0x32,0x64,0x0
000760 6147
000761 616a
000762 676e
000763 4c00      	.DB  0x47,0x61,0x6A,0x61,0x6E,0x67,0x0,0x4C
000764 6d69
000765 7469
000766 3620
000767 4b30      	.DB  0x69,0x6D,0x69,0x74,0x20,0x36,0x30,0x4B
000768 006d
000769 5453
00076a 4552
00076b 5445      	.DB  0x6D,0x0,0x53,0x54,0x52,0x45,0x45,0x54
00076c 2d00
00076d 533e
00076e 6e69
00076f 6174      	.DB  0x0,0x2D,0x3E,0x53,0x69,0x6E,0x74,0x61
000770 6a6e
000771 6e69
000772 5e00
000773 6f44      	.DB  0x6E,0x6A,0x69,0x6E,0x0,0x5E,0x44,0x6F
000774 676e
000775 6573
000776 6164
000777 0065      	.DB  0x6E,0x67,0x73,0x65,0x64,0x61,0x65,0x0
000778 2d3c
000779 6148
00077a 626e
00077b 7461      	.DB  0x3C,0x2D,0x48,0x61,0x6E,0x62,0x61,0x74
00077c 6164
00077d 0065
00077e 694c
00077f 696d      	.DB  0x64,0x61,0x65,0x0,0x4C,0x69,0x6D,0x69
000780 2074
000781 3035
000782 6d4b
000783 2d00      	.DB  0x74,0x20,0x35,0x30,0x4B,0x6D,0x0,0x2D
000784 443e
000785 6e6f
000786 7367
000787 6465      	.DB  0x3E,0x44,0x6F,0x6E,0x67,0x73,0x65,0x64
000788 6561
000789 5e00
00078a 6148
00078b 626e      	.DB  0x61,0x65,0x0,0x5E,0x48,0x61,0x6E,0x62
00078c 7461
00078d 6164
00078e 0065
00078f 2d3c      	.DB  0x61,0x74,0x64,0x61,0x65,0x0,0x3C,0x2D
000790 6147
000791 616a
000792 676e
000793 4c00      	.DB  0x47,0x61,0x6A,0x61,0x6E,0x67,0x0,0x4C
000794 6d69
000795 7469
000796 3820
000797 4b30      	.DB  0x69,0x6D,0x69,0x74,0x20,0x38,0x30,0x4B
000798 006d
000799 3e2d
00079a 6148
00079b 626e      	.DB  0x6D,0x0,0x2D,0x3E,0x48,0x61,0x6E,0x62
00079c 7461
00079d 6164
00079e 0065
00079f 475e      	.DB  0x61,0x74,0x64,0x61,0x65,0x0,0x5E,0x47
0007a0 6a61
0007a1 6e61
0007a2 0067
0007a3 2d3c      	.DB  0x61,0x6A,0x61,0x6E,0x67,0x0,0x3C,0x2D
0007a4 6953
0007a5 746e
0007a6 6e61
0007a7 696a      	.DB  0x53,0x69,0x6E,0x74,0x61,0x6E,0x6A,0x69
0007a8 006e
0007a9 3e2d
0007aa 6147
0007ab 616a      	.DB  0x6E,0x0,0x2D,0x3E,0x47,0x61,0x6A,0x61
0007ac 676e
0007ad 5e00
0007ae 6953
0007af 746e      	.DB  0x6E,0x67,0x0,0x5E,0x53,0x69,0x6E,0x74
0007b0 6e61
0007b1 696a
0007b2 006e
0007b3 2d3c      	.DB  0x61,0x6E,0x6A,0x69,0x6E,0x0,0x3C,0x2D
0007b4 6f44
0007b5 676e
0007b6 6573
0007b7 6164      	.DB  0x44,0x6F,0x6E,0x67,0x73,0x65,0x64,0x61
0007b8 0065      	.DB  0x65,0x0
                 
                 __GLOBAL_INI_TBL:
0007b9 000a      	.DW  0x0A
0007ba 0004      	.DW  0x04
0007bb 0e92      	.DW  __REG_VARS*2
                 
0007bc 0001      	.DW  0x01
0007bd 0502      	.DW  _cnt1
0007be 0e9c      	.DW  _0x3*2
                 
0007bf 0001      	.DW  0x01
0007c0 053e      	.DW  _load
0007c1 0e9e      	.DW  _0x44*2
                 
                 _0xFFFFFFFF:
0007c2 0000      	.DW  0
                 
                 #define __GLOBAL_INI_TBL_PRESENT 1
                 
                 __RESET:
0007c3 94f8      	CLI
0007c4 27ee      	CLR  R30
0007c5 bbec      	OUT  EECR,R30
                 
                 ;INTERRUPT VECTORS ARE PLACED
                 ;AT THE START OF FLASH
0007c6 e0f1      	LDI  R31,1
0007c7 bff5      	OUT  MCUCR,R31
0007c8 bfe5      	OUT  MCUCR,R30
0007c9 93e0 006c 	STS  XMCRB,R30
                 
                 ;CLEAR R2-R14
0007cb e08d      	LDI  R24,(14-2)+1
0007cc e0a2      	LDI  R26,2
0007cd 27bb      	CLR  R27
                 __CLEAR_REG:
0007ce 93ed      	ST   X+,R30
0007cf 958a      	DEC  R24
0007d0 f7e9      	BRNE __CLEAR_REG
                 
                 ;CLEAR SRAM
0007d1 e080      	LDI  R24,LOW(__CLEAR_SRAM_SIZE)
0007d2 e190      	LDI  R25,HIGH(__CLEAR_SRAM_SIZE)
0007d3 e0a0      	LDI  R26,LOW(__SRAM_START)
0007d4 e0b1      	LDI  R27,HIGH(__SRAM_START)
                 __CLEAR_SRAM:
0007d5 93ed      	ST   X+,R30
0007d6 9701      	SBIW R24,1
0007d7 f7e9      	BRNE __CLEAR_SRAM
                 
                 ;GLOBAL VARIABLES INITIALIZATION
0007d8 e7e2      	LDI  R30,LOW(__GLOBAL_INI_TBL*2)
0007d9 e0ff      	LDI  R31,HIGH(__GLOBAL_INI_TBL*2)
                 __GLOBAL_INI_NEXT:
0007da 9185      	LPM  R24,Z+
0007db 9195      	LPM  R25,Z+
0007dc 9700      	SBIW R24,0
0007dd f061      	BREQ __GLOBAL_INI_END
0007de 91a5      	LPM  R26,Z+
0007df 91b5      	LPM  R27,Z+
0007e0 9005      	LPM  R0,Z+
0007e1 9015      	LPM  R1,Z+
0007e2 01bf      	MOVW R22,R30
0007e3 01f0      	MOVW R30,R0
                 __GLOBAL_INI_LOOP:
0007e4 9005      	LPM  R0,Z+
0007e5 920d      	ST   X+,R0
0007e6 9701      	SBIW R24,1
0007e7 f7e1      	BRNE __GLOBAL_INI_LOOP
0007e8 01fb      	MOVW R30,R22
0007e9 cff0      	RJMP __GLOBAL_INI_NEXT
                 __GLOBAL_INI_END:
                 
0007ea bf8b      	OUT  RAMPZ,R24
                 
                 ;HARDWARE STACK POINTER INITIALIZATION
0007eb efef      	LDI  R30,LOW(__SRAM_END-__HEAP_SIZE)
0007ec bfed      	OUT  SPL,R30
0007ed e1e0      	LDI  R30,HIGH(__SRAM_END-__HEAP_SIZE)
0007ee bfee      	OUT  SPH,R30
                 
                 ;DATA STACK POINTER INITIALIZATION
0007ef e0c0      	LDI  R28,LOW(__SRAM_START+__DSTACK_SIZE)
0007f0 e0d5      	LDI  R29,HIGH(__SRAM_START+__DSTACK_SIZE)
                 
0007f1 940c 0c77 	JMP  _main
                 
                 	.ESEG
                 	.ORG 0
                 
                 	.DSEG
                 	.ORG 0x500
                 
                 	.CSEG
                 ;#include <mega128.h>
                 	#ifndef __SLEEP_DEFINED__
                 	#define __SLEEP_DEFINED__
                 	.EQU __se_bit=0x20
                 	.EQU __sm_mask=0x1C
                 	.EQU __sm_powerdown=0x10
                 	.EQU __sm_powersave=0x18
                 	.EQU __sm_standby=0x14
                 	.EQU __sm_ext_standby=0x1C
                 	.EQU __sm_adc_noise_red=0x08
                 	.SET power_ctrl_reg=mcucr
                 	#endif
                 ;#include <delay.h>
                 ;#include <io.h>
                 ;#include <stdio.h>
                 ;
                 ;int time_loop = 0, led_count = 0, led_flag = 0, time_count = 0;
                 ;char key4_flag = 0, key5_flag = 0, key6_flag = 0, key7_flag = 0;
                 ;
                 ;#include "Counter.c"
                 ;#ifndef _Counter_
                 ;#define _Counter_
                 ;
                 ;char cnt1 = 121;
                 
                 	.DSEG
                 ;char cnt2 = 0;
                 ;
                 ;
                 ;#include "leddis.c"
                 ;#ifndef _leddis_
                 ;#define _leddis_
                 ;
                 ;
                 ;char led_dis1[13] = {0,};
                 ;char led_dis2[13] = {0,};
                 ;int led_add[2][5] = {0,};
                 ;int i, k, cnt = 0;
                 ;
                 ;void led_dis();
                 ;
                 ;void led_init(){
                 ; 0000 0009 void led_init(){
                 
                 	.CSEG
                 _led_init:
                 ; .FSTART _led_init
                 ;    for(k=1 ; k<13 ; k++) {
0007f3 e0e1      	LDI  R30,LOW(1)
0007f4 e0f0      	LDI  R31,HIGH(1)
0007f5 93e0 0534 	STS  _k,R30
0007f7 93f0 0535 	STS  _k+1,R31
                 _0x5:
0007f9 91a0 0534 	LDS  R26,_k
0007fb 91b0 0535 	LDS  R27,_k+1
0007fd 971d      	SBIW R26,13
0007fe f47c      	BRGE _0x6
                 ;        led_dis1[k] = 0;
0007ff 940e 0f69 	CALL SUBOPT_0x0
000801 5fec      	SUBI R30,LOW(-_led_dis1)
000802 4ffa      	SBCI R31,HIGH(-_led_dis1)
000803 e0a0      	LDI  R26,LOW(0)
000804 83a0      	STD  Z+0,R26
                 ;        led_dis2[k] = 0;
000805 940e 0f69 	CALL SUBOPT_0x0
000807 5eef      	SUBI R30,LOW(-_led_dis2)
000808 4ffa      	SBCI R31,HIGH(-_led_dis2)
000809 e0a0      	LDI  R26,LOW(0)
00080a 83a0      	STD  Z+0,R26
                 ;    }
00080b 940e 0f6e 	CALL SUBOPT_0x1
00080d cfeb      	RJMP _0x5
                 _0x6:
                 ;}
00080e 9508      	RET
                 ; .FEND
                 ;
                 ;
                 ;void led_change(char cnt1, char cnt2){
                 _led_change:
                 ; .FSTART _led_change
                 ;    led_init();
00080f 93aa      	ST   -Y,R26
                 ;	cnt1 -> Y+1
                 ;	cnt2 -> Y+0
000810 dfe2      	RCALL _led_init
                 ;    if(cnt1 > 61){
000811 81a9      	LDD  R26,Y+1
000812 33ae      	CPI  R26,LOW(0x3E)
000813 f0d8      	BRLO _0x7
                 ;    //printf("1");
                 ;        led_dis1[6] = 1;
000814 940e 0f76 	CALL SUBOPT_0x2
                 ;        led_dis1[7] = 1;
                +
000816 93e0 050b+STS _led_dis1 + ( 7 ) , R30
                 	__PUTB1MN _led_dis1,7
                 ;        led_dis1[12] = 1;
000818 e0e1      	LDI  R30,LOW(1)
                +
000819 93e0 0510+STS _led_dis1 + ( 12 ) , R30
                 	__PUTB1MN _led_dis1,12
                 ;        led_dis2[1] = 1;
00081b 940e 0f7a 	CALL SUBOPT_0x3
                 ;        led_dis2[6] = 1;
00081d 940e 0f7e 	CALL SUBOPT_0x4
                 ;        led_dis2[7] = 1;
                 ;        led_dis2[11] = 1;
                +
00081f 93e0 051c+STS _led_dis2 + ( 11 ) , R30
                 	__PUTB1MN _led_dis2,11
                 ;        if(cnt1 > 63){
000821 81a9      	LDD  R26,Y+1
000822 34a0      	CPI  R26,LOW(0x40)
000823 f030      	BRLO _0x8
                 ;            led_dis1[3] = 1;
000824 e0e1      	LDI  R30,LOW(1)
                +
000825 93e0 0507+STS _led_dis1 + ( 3 ) , R30
                 	__PUTB1MN _led_dis1,3
                 ;            led_dis1[4] = 1;
                +
000827 93e0 0508+STS _led_dis1 + ( 4 ) , R30
                 	__PUTB1MN _led_dis1,4
                 ;            led_dis();
000829 c003      	RJMP _0xEA
                 ;        }
                 ;        else {
                 _0x8:
                 ;            led_dis1[2] = 1;
00082a e0e1      	LDI  R30,LOW(1)
                +
00082b 93e0 0506+STS _led_dis1 + ( 2 ) , R30
                 	__PUTB1MN _led_dis1,2
                 ;            led_dis();
                 _0xEA:
00082d d0c6      	RCALL _led_dis
                 ;        }
                 ;    }
                 ;    else if (cnt1 > 0){
00082e c01f      	RJMP _0xA
                 _0x7:
00082f 81a9      	LDD  R26,Y+1
000830 30a1      	CPI  R26,LOW(0x1)
000831 f0e0      	BRLO _0xB
                 ;        led_dis1[1] = 1;
000832 e0e1      	LDI  R30,LOW(1)
                +
000833 93e0 0505+STS _led_dis1 + ( 1 ) , R30
                 	__PUTB1MN _led_dis1,1
                 ;        led_dis1[6] = 1;
000835 940e 0f76 	CALL SUBOPT_0x2
                 ;        led_dis1[11] = 1;
                +
000837 93e0 050f+STS _led_dis1 + ( 11 ) , R30
                 	__PUTB1MN _led_dis1,11
                 ;        led_dis2[1] = 1;
000839 940e 0f7a 	CALL SUBOPT_0x3
                 ;        led_dis2[5] = 1;
                +
00083b 93e0 0516+STS _led_dis2 + ( 5 ) , R30
                 	__PUTB1MN _led_dis2,5
                 ;        led_dis2[7] = 1;
00083d e0e1      	LDI  R30,LOW(1)
                +
00083e 93e0 0518+STS _led_dis2 + ( 7 ) , R30
                 	__PUTB1MN _led_dis2,7
                 ;        led_dis2[11] = 1;
                +
000840 93e0 051c+STS _led_dis2 + ( 11 ) , R30
                 	__PUTB1MN _led_dis2,11
                 ;        if(cnt1 > 2){
000842 81a9      	LDD  R26,Y+1
000843 30a3      	CPI  R26,LOW(0x3)
000844 f028      	BRLO _0xC
                 ;            led_dis1[9] = 1;
                +
000845 93e0 050d+STS _led_dis1 + ( 9 ) , R30
                 	__PUTB1MN _led_dis1,9
                 ;            led_dis1[10] = 1;
                +
000847 93e0 050e+STS _led_dis1 + ( 10 ) , R30
                 	__PUTB1MN _led_dis1,10
                 ;            led_dis();
000849 c003      	RJMP _0xEB
                 ;        }
                 ;        else {
                 _0xC:
                 ;            led_dis1[8] = 1;
00084a e0e1      	LDI  R30,LOW(1)
                +
00084b 93e0 050c+STS _led_dis1 + ( 8 ) , R30
                 	__PUTB1MN _led_dis1,8
                 ;            led_dis();
                 _0xEB:
00084d d0a6      	RCALL _led_dis
                 ;        }
                 ;    }
                 ;    if(cnt2 > 61){
                 _0xB:
                 _0xA:
00084e 81a8      	LD   R26,Y
00084f 33ae      	CPI  R26,LOW(0x3E)
000850 f0e0      	BRLO _0xE
                 ;        led_dis2[6] = 1;
000851 e0e1      	LDI  R30,LOW(1)
000852 940e 0f7e 	CALL SUBOPT_0x4
                 ;        led_dis2[7] = 1;
                 ;        led_dis2[12] = 1;
                +
000854 93e0 051d+STS _led_dis2 + ( 12 ) , R30
                 	__PUTB1MN _led_dis2,12
                 ;        led_dis1[1] = 1;
000856 e0e1      	LDI  R30,LOW(1)
                +
000857 93e0 0505+STS _led_dis1 + ( 1 ) , R30
                 	__PUTB1MN _led_dis1,1
                 ;        led_dis1[6] = 1;
000859 940e 0f76 	CALL SUBOPT_0x2
                 ;        led_dis1[7] = 1;
                +
00085b 93e0 050b+STS _led_dis1 + ( 7 ) , R30
                 	__PUTB1MN _led_dis1,7
                 ;        led_dis1[11] = 1;
00085d e0e1      	LDI  R30,LOW(1)
                +
00085e 93e0 050f+STS _led_dis1 + ( 11 ) , R30
                 	__PUTB1MN _led_dis1,11
                 ;        if(cnt2 > 63){
000860 81a8      	LD   R26,Y
000861 34a0      	CPI  R26,LOW(0x40)
000862 f028      	BRLO _0xF
                 ;            led_dis2[3] = 1;
                +
000863 93e0 0514+STS _led_dis2 + ( 3 ) , R30
                 	__PUTB1MN _led_dis2,3
                 ;            led_dis2[4] = 1;
                +
000865 93e0 0515+STS _led_dis2 + ( 4 ) , R30
                 	__PUTB1MN _led_dis2,4
                 ;            led_dis();
000867 c003      	RJMP _0xEC
                 ;        }
                 ;        else {
                 _0xF:
                 ;            led_dis2[2] = 1;
000868 e0e1      	LDI  R30,LOW(1)
                +
000869 93e0 0513+STS _led_dis2 + ( 2 ) , R30
                 	__PUTB1MN _led_dis2,2
                 ;            led_dis();
                 _0xEC:
00086b d088      	RCALL _led_dis
                 ;        }
                 ;    }
                 ;    else if (cnt2 > 0){
00086c c01f      	RJMP _0x11
                 _0xE:
00086d 81a8      	LD   R26,Y
00086e 30a1      	CPI  R26,LOW(0x1)
00086f f0e0      	BRLO _0x12
                 ;        led_dis1[1] = 1;
000870 e0e1      	LDI  R30,LOW(1)
                +
000871 93e0 0505+STS _led_dis1 + ( 1 ) , R30
                 	__PUTB1MN _led_dis1,1
                 ;        led_dis1[5] = 1;
                +
000873 93e0 0509+STS _led_dis1 + ( 5 ) , R30
                 	__PUTB1MN _led_dis1,5
                 ;        led_dis1[7] = 1;
                +
000875 93e0 050b+STS _led_dis1 + ( 7 ) , R30
                 	__PUTB1MN _led_dis1,7
                 ;        led_dis1[11] = 1;
                +
000877 93e0 050f+STS _led_dis1 + ( 11 ) , R30
                 	__PUTB1MN _led_dis1,11
                 ;        led_dis2[6] = 1;
                +
000879 93e0 0517+STS _led_dis2 + ( 6 ) , R30
                 	__PUTB1MN _led_dis2,6
                 ;        led_dis2[1] = 1;
00087b 940e 0f7a 	CALL SUBOPT_0x3
                 ;        led_dis2[11] = 1;
                +
00087d 93e0 051c+STS _led_dis2 + ( 11 ) , R30
                 	__PUTB1MN _led_dis2,11
                 ;        if(cnt2 > 2){
00087f 81a8      	LD   R26,Y
000880 30a3      	CPI  R26,LOW(0x3)
000881 f030      	BRLO _0x13
                 ;            led_dis2[9] = 1;
000882 e0e1      	LDI  R30,LOW(1)
                +
000883 93e0 051a+STS _led_dis2 + ( 9 ) , R30
                 	__PUTB1MN _led_dis2,9
                 ;            led_dis2[10] = 1;
                +
000885 93e0 051b+STS _led_dis2 + ( 10 ) , R30
                 	__PUTB1MN _led_dis2,10
                 ;            led_dis();
000887 c003      	RJMP _0xED
                 ;        }
                 ;        else {
                 _0x13:
                 ;            led_dis2[8] = 1;
000888 e0e1      	LDI  R30,LOW(1)
                +
000889 93e0 0519+STS _led_dis2 + ( 8 ) , R30
                 	__PUTB1MN _led_dis2,8
                 ;            led_dis();
                 _0xED:
00088b d068      	RCALL _led_dis
                 ;        }
                 ;    }
                 ;}
                 _0x12:
                 _0x11:
00088c c23b      	RJMP _0x2060005
                 ; .FEND
                 ;
                 ;void arr_init(){
                 _arr_init:
                 ; .FSTART _arr_init
                 ;    for(i = 0;i<2;i++){
00088d e0e0      	LDI  R30,LOW(0)
00088e 93e0 0532 	STS  _i,R30
000890 93e0 0533 	STS  _i+1,R30
                 _0x16:
000892 940e 0f84 	CALL SUBOPT_0x5
000894 9712      	SBIW R26,2
000895 f50c      	BRGE _0x17
                 ;        for(k = 0;k<5;k++){
000896 e0e0      	LDI  R30,LOW(0)
000897 93e0 0534 	STS  _k,R30
000899 93e0 0535 	STS  _k+1,R30
                 _0x19:
00089b 91a0 0534 	LDS  R26,_k
00089d 91b0 0535 	LDS  R27,_k+1
00089f 9715      	SBIW R26,5
0008a0 f49c      	BRGE _0x1A
                 ;            led_add[i][k] = 0;
0008a1 940e 0f84 	CALL SUBOPT_0x5
0008a3 e0ea      	LDI  R30,LOW(10)
0008a4 940e 1129 	CALL __MULB1W2U
0008a6 5ee2      	SUBI R30,LOW(-_led_add)
0008a7 4ffa      	SBCI R31,HIGH(-_led_add)
0008a8 01df      	MOVW R26,R30
0008a9 940e 0f69 	CALL SUBOPT_0x0
0008ab 940e 0f89 	CALL SUBOPT_0x6
0008ad e0e0      	LDI  R30,LOW(0)
0008ae e0f0      	LDI  R31,HIGH(0)
0008af 93ed      	ST   X+,R30
0008b0 93fc      	ST   X,R31
                 ;        }
0008b1 940e 0f6e 	CALL SUBOPT_0x1
0008b3 cfe7      	RJMP _0x19
                 _0x1A:
                 ;    }
0008b4 940e 0f8e 	CALL SUBOPT_0x7
0008b6 cfdb      	RJMP _0x16
                 _0x17:
                 ;}
0008b7 9508      	RET
                 ; .FEND
                 ;
                 ;
                 ;void led_ad(){
                 _led_ad:
                 ; .FSTART _led_ad
                 ;    arr_init();
0008b8 dfd4      	RCALL _arr_init
                 ;    for(i = 1; i<13;i++){
0008b9 940e 0f96 	CALL SUBOPT_0x8
                 _0x1C:
0008bb 940e 0f84 	CALL SUBOPT_0x5
0008bd 971d      	SBIW R26,13
0008be f494      	BRGE _0x1D
                 ;        if(led_dis1[i] == 1) {
0008bf 940e 0f9d 	CALL SUBOPT_0x9
0008c1 5fec      	SUBI R30,LOW(-_led_dis1)
0008c2 4ffa      	SBCI R31,HIGH(-_led_dis1)
0008c3 81a0      	LD   R26,Z
0008c4 30a1      	CPI  R26,LOW(0x1)
0008c5 f441      	BRNE _0x1E
                 ;            led_add[0][cnt] = i;
0008c6 91e0 0536 	LDS  R30,_cnt
0008c8 91f0 0537 	LDS  R31,_cnt+1
0008ca e1ae      	LDI  R26,LOW(_led_add)
0008cb e0b5      	LDI  R27,HIGH(_led_add)
0008cc 940e 0fa2 	CALL SUBOPT_0xA
                 ;            cnt++;
                 ;        }
                 ;    }
                 _0x1E:
0008ce 940e 0f8e 	CALL SUBOPT_0x7
0008d0 cfea      	RJMP _0x1C
                 _0x1D:
                 ;    cnt = 0;
0008d1 e0e0      	LDI  R30,LOW(0)
0008d2 93e0 0536 	STS  _cnt,R30
0008d4 93e0 0537 	STS  _cnt+1,R30
                 ;    for(i = 1; i<13;i++){
0008d6 940e 0f96 	CALL SUBOPT_0x8
                 _0x20:
0008d8 940e 0f84 	CALL SUBOPT_0x5
0008da 971d      	SBIW R26,13
0008db f494      	BRGE _0x21
                 ;        if(led_dis2[i] == 1) {
0008dc 940e 0f9d 	CALL SUBOPT_0x9
0008de 5eef      	SUBI R30,LOW(-_led_dis2)
0008df 4ffa      	SBCI R31,HIGH(-_led_dis2)
0008e0 81a0      	LD   R26,Z
0008e1 30a1      	CPI  R26,LOW(0x1)
0008e2 f441      	BRNE _0x22
                 ;            led_add[1][cnt] = i;
                +
0008e3 e2a8     +LDI R26 , LOW ( _led_add + ( 10 ) )
0008e4 e0b5     +LDI R27 , HIGH ( _led_add + ( 10 ) )
                 	__POINTW2MN _led_add,10
0008e5 91e0 0536 	LDS  R30,_cnt
0008e7 91f0 0537 	LDS  R31,_cnt+1
0008e9 940e 0fa2 	CALL SUBOPT_0xA
                 ;            cnt++;
                 ;        }
                 ;    }
                 _0x22:
0008eb 940e 0f8e 	CALL SUBOPT_0x7
0008ed cfea      	RJMP _0x20
                 _0x21:
                 ;    cnt = 0;
0008ee e0e0      	LDI  R30,LOW(0)
0008ef 93e0 0536 	STS  _cnt,R30
0008f1 93e0 0537 	STS  _cnt+1,R30
                 ;
                 ;}
0008f3 9508      	RET
                 ; .FEND
                 ;
                 ;void led_dis(){
                 _led_dis:
                 ; .FSTART _led_dis
                 ;     for(i = 0; i<5; i++){
0008f4 e0e0      	LDI  R30,LOW(0)
0008f5 93e0 0532 	STS  _i,R30
0008f7 93e0 0533 	STS  _i+1,R30
                 _0x24:
0008f9 940e 0f84 	CALL SUBOPT_0x5
0008fb 9715      	SBIW R26,5
0008fc f4e4      	BRGE _0x25
                 ;        if(i == 0){
0008fd 940e 0f9d 	CALL SUBOPT_0x9
0008ff 9730      	SBIW R30,0
000900 f411      	BRNE _0x26
                 ;            PORTA.7 = 1;
000901 9adf      	SBI  0x1B,7
                 ;            PORTA.7 = 0;
000902 98df      	CBI  0x1B,7
                 ;        }
                 ;        PORTD = led_add[0][i] + (led_add[1][i]*16);
                 _0x26:
000903 940e 0f9d 	CALL SUBOPT_0x9
000905 e1ae      	LDI  R26,LOW(_led_add)
000906 e0b5      	LDI  R27,HIGH(_led_add)
000907 940e 0f89 	CALL SUBOPT_0x6
000909 916c      	LD   R22,X
                +
00090a e2a8     +LDI R26 , LOW ( _led_add + ( 10 ) )
00090b e0b5     +LDI R27 , HIGH ( _led_add + ( 10 ) )
                 	__POINTW2MN _led_add,10
00090c 940e 0f9d 	CALL SUBOPT_0x9
00090e 940e 0f89 	CALL SUBOPT_0x6
000910 91ec      	LD   R30,X
000911 e1a0      	LDI  R26,LOW(16)
000912 02ea      	MULS R30,R26
000913 01f0      	MOVW R30,R0
000914 0fe6      	ADD  R30,R22
000915 bbe2      	OUT  0x12,R30
                 ;     }
000916 940e 0f8e 	CALL SUBOPT_0x7
000918 cfe0      	RJMP _0x24
                 _0x25:
                 ;}
000919 9508      	RET
                 ; .FEND
                 ;
                 ;#endif
                 ;
                 ;
                 ;
                 ;void Counter_add()
                 ;{
                 _Counter_add:
                 ; .FSTART _Counter_add
                 ;        if(cnt1 > 0){
00091a 91a0 0502 	LDS  R26,_cnt1
00091c 30a1      	CPI  R26,LOW(0x1)
00091d f150      	BRLO _0x2B
                 ;            cnt1--;
00091e 91e0 0502 	LDS  R30,_cnt1
000920 50e1      	SUBI R30,LOW(1)
000921 93e0 0502 	STS  _cnt1,R30
                 ;            if(cnt1 >60){
000923 91a0 0502 	LDS  R26,_cnt1
000925 33ad      	CPI  R26,LOW(0x3D)
000926 f050      	BRLO _0x2C
                 ;                printf("Green  %d sec", cnt1-60);
                +
000927 eae0     +LDI R30 , LOW ( 2 * _0x0 + ( 0 ) )
000928 e0fe     +LDI R31 , HIGH ( 2 * _0x0 + ( 0 ) )
                 	__POINTW1FN _0x0,0
000929 93fa      	ST   -Y,R31
00092a 93ea      	ST   -Y,R30
00092b 91e0 0502 	LDS  R30,_cnt1
00092d e0f0      	LDI  R31,0
00092e 97fc      	SBIW R30,60
00092f 940e 0fb1 	CALL SUBOPT_0xB
                 ;                printf("\r");
                 ;            }
                 ;            if(cnt1 <= 60){
                 _0x2C:
000931 91a0 0502 	LDS  R26,_cnt1
000933 33ad      	CPI  R26,LOW(0x3D)
000934 f458      	BRSH _0x2D
                 ;                printf("Red  %d sec", 120+cnt1);
                +
000935 ebe0     +LDI R30 , LOW ( 2 * _0x0 + ( 16 ) )
000936 e0fe     +LDI R31 , HIGH ( 2 * _0x0 + ( 16 ) )
                 	__POINTW1FN _0x0,16
000937 93fa      	ST   -Y,R31
000938 93ea      	ST   -Y,R30
000939 91e0 0502 	LDS  R30,_cnt1
00093b e0f0      	LDI  R31,0
00093c 58e8      	SUBI R30,LOW(-120)
00093d 4fff      	SBCI R31,HIGH(-120)
00093e 940e 0fb1 	CALL SUBOPT_0xB
                 ;                printf("\r");
                 ;            }
                 ;            if(cnt1 == 0)cnt2 = 121;
                 _0x2D:
000940 91e0 0502 	LDS  R30,_cnt1
000942 30e0      	CPI  R30,0
000943 f419      	BRNE _0x2E
000944 e7e9      	LDI  R30,LOW(121)
000945 93e0 0503 	STS  _cnt2,R30
                 ;            led_change(cnt1, cnt2);
                 _0x2E:
000947 c023      	RJMP _0x2060007
                 ;            led_ad();
                 ;            return;
                 ;        }
                 ;        if(cnt2 > 0){
                 _0x2B:
000948 91a0 0503 	LDS  R26,_cnt2
00094a 30a1      	CPI  R26,LOW(0x1)
00094b f138      	BRLO _0x2F
                 ;            cnt2--;
00094c 91e0 0503 	LDS  R30,_cnt2
00094e 50e1      	SUBI R30,LOW(1)
00094f 93e0 0503 	STS  _cnt2,R30
                 ;            printf("Red  %d sec", cnt2);
                +
000951 ebe0     +LDI R30 , LOW ( 2 * _0x0 + ( 16 ) )
000952 e0fe     +LDI R31 , HIGH ( 2 * _0x0 + ( 16 ) )
                 	__POINTW1FN _0x0,16
000953 93fa      	ST   -Y,R31
000954 93ea      	ST   -Y,R30
000955 91e0 0503 	LDS  R30,_cnt2
000957 940e 0fc2 	CALL SUBOPT_0xC
000959 940e 0f31 	CALL _printf
00095b 9626      	ADIW R28,6
                 ;            printf("\r");
                +
00095c eaee     +LDI R30 , LOW ( 2 * _0x0 + ( 14 ) )
00095d e0fe     +LDI R31 , HIGH ( 2 * _0x0 + ( 14 ) )
                 	__POINTW1FN _0x0,14
00095e 93fa      	ST   -Y,R31
00095f 93ea      	ST   -Y,R30
000960 e080      	LDI  R24,0
000961 940e 0f31 	CALL _printf
000963 9622      	ADIW R28,2
                 ;            if(cnt2 == 0)cnt1 = 121;
000964 91e0 0503 	LDS  R30,_cnt2
000966 30e0      	CPI  R30,0
000967 f419      	BRNE _0x30
000968 e7e9      	LDI  R30,LOW(121)
000969 93e0 0502 	STS  _cnt1,R30
                 ;            led_change(cnt1, cnt2);
                 _0x30:
                 _0x2060007:
00096b 91e0 0502 	LDS  R30,_cnt1
00096d 93ea      	ST   -Y,R30
00096e 91a0 0503 	LDS  R26,_cnt2
000970 de9e      	RCALL _led_change
                 ;            led_ad();
000971 df46      	RCALL _led_ad
                 ;            return;
000972 9508      	RET
                 ;        }
                 ;
                 ;}
                 _0x2F:
000973 9508      	RET
                 ; .FEND
                 ;
                 ;#endif
                 ;#include "leddis.c"
                 ;#ifndef _leddis_
                 ;#define _leddis_
                 ;
                 ;
                 ;char led_dis1[13] = {0,};
                 ;char led_dis2[13] = {0,};
                 ;int led_add[2][5] = {0,};
                 ;int i, k, cnt = 0;
                 ;
                 ;void led_dis();
                 ;
                 ;void led_init(){
                 ;    for(k=1 ; k<13 ; k++) {
                 ;        led_dis1[k] = 0;
                 ;        led_dis2[k] = 0;
                 ;    }
                 ;}
                 ;
                 ;
                 ;void led_change(char cnt1, char cnt2){
                 ;    led_init();
                 ;    if(cnt1 > 61){
                 ;    //printf("1");
                 ;        led_dis1[6] = 1;
                 ;        led_dis1[7] = 1;
                 ;        led_dis1[12] = 1;
                 ;        led_dis2[1] = 1;
                 ;        led_dis2[6] = 1;
                 ;        led_dis2[7] = 1;
                 ;        led_dis2[11] = 1;
                 ;        if(cnt1 > 63){
                 ;            led_dis1[3] = 1;
                 ;            led_dis1[4] = 1;
                 ;            led_dis();
                 ;        }
                 ;        else {
                 ;            led_dis1[2] = 1;
                 ;            led_dis();
                 ;        }
                 ;    }
                 ;    else if (cnt1 > 0){
                 ;        led_dis1[1] = 1;
                 ;        led_dis1[6] = 1;
                 ;        led_dis1[11] = 1;
                 ;        led_dis2[1] = 1;
                 ;        led_dis2[5] = 1;
                 ;        led_dis2[7] = 1;
                 ;        led_dis2[11] = 1;
                 ;        if(cnt1 > 2){
                 ;            led_dis1[9] = 1;
                 ;            led_dis1[10] = 1;
                 ;            led_dis();
                 ;        }
                 ;        else {
                 ;            led_dis1[8] = 1;
                 ;            led_dis();
                 ;        }
                 ;    }
                 ;    if(cnt2 > 61){
                 ;        led_dis2[6] = 1;
                 ;        led_dis2[7] = 1;
                 ;        led_dis2[12] = 1;
                 ;        led_dis1[1] = 1;
                 ;        led_dis1[6] = 1;
                 ;        led_dis1[7] = 1;
                 ;        led_dis1[11] = 1;
                 ;        if(cnt2 > 63){
                 ;            led_dis2[3] = 1;
                 ;            led_dis2[4] = 1;
                 ;            led_dis();
                 ;        }
                 ;        else {
                 ;            led_dis2[2] = 1;
                 ;            led_dis();
                 ;        }
                 ;    }
                 ;    else if (cnt2 > 0){
                 ;        led_dis1[1] = 1;
                 ;        led_dis1[5] = 1;
                 ;        led_dis1[7] = 1;
                 ;        led_dis1[11] = 1;
                 ;        led_dis2[6] = 1;
                 ;        led_dis2[1] = 1;
                 ;        led_dis2[11] = 1;
                 ;        if(cnt2 > 2){
                 ;            led_dis2[9] = 1;
                 ;            led_dis2[10] = 1;
                 ;            led_dis();
                 ;        }
                 ;        else {
                 ;            led_dis2[8] = 1;
                 ;            led_dis();
                 ;        }
                 ;    }
                 ;}
                 ;
                 ;void arr_init(){
                 ;    for(i = 0;i<2;i++){
                 ;        for(k = 0;k<5;k++){
                 ;            led_add[i][k] = 0;
                 ;        }
                 ;    }
                 ;}
                 ;
                 ;
                 ;void led_ad(){
                 ;    arr_init();
                 ;    for(i = 1; i<13;i++){
                 ;        if(led_dis1[i] == 1) {
                 ;            led_add[0][cnt] = i;
                 ;            cnt++;
                 ;        }
                 ;    }
                 ;    cnt = 0;
                 ;    for(i = 1; i<13;i++){
                 ;        if(led_dis2[i] == 1) {
                 ;            led_add[1][cnt] = i;
                 ;            cnt++;
                 ;        }
                 ;    }
                 ;    cnt = 0;
                 ;
                 ;}
                 ;
                 ;void led_dis(){
                 ;     for(i = 0; i<5; i++){
                 ;        if(i == 0){
                 ;            PORTA.7 = 1;
                 ;            PORTA.7 = 0;
                 ;        }
                 ;        PORTD = led_add[0][i] + (led_add[1][i]*16);
                 ;     }
                 ;}
                 ;
                 ;#endif
                 ;
                 ;#include "uart.c"
                 ;
                 ;
                 ;#ifndef _uart_
                 ;#define _uart_
                 ;
                 ;
                 ;void uart0_init(void)
                 ; 0000 000B {
                 _uart0_init:
                 ; .FSTART _uart0_init
                 ;  UCSR0A = 0x00;  // flag  clr,  
000974 e0e0      	LDI  R30,LOW(0)
000975 b9eb      	OUT  0xB,R30
                 ;  UCSR0B = 0x98; //rx,tx en, rx int on
000976 e9e8      	LDI  R30,LOW(152)
000977 b9ea      	OUT  0xA,R30
                 ;  UCSR0C = 0x06; //n-p,1-stop
000978 e0e6      	LDI  R30,LOW(6)
000979 93e0 0095 	STS  149,R30
                 ;  UBRR0H = 0x00;
00097b e0e0      	LDI  R30,LOW(0)
00097c 93e0 0090 	STS  144,R30
                 ;  UBRR0L = 47; //8mhz, 9600, 103 - 16mhz, 47 = 7.2738mhz,
00097e e2ef      	LDI  R30,LOW(47)
00097f b9e9      	OUT  0x9,R30
                 ;}
000980 9508      	RET
                 ; .FEND
                 ;
                 ;
                 ;#endif
                 ;#include "fnd.c"
                 ;
                 ;#ifndef _fnd_
                 ;#define _fnd_
                 ;
                 ;char scan = 0;
                 ;
                 ;
                 ;// fnd comm k type
                 ;
                 ;const unsigned char fnd_font[] =
                 ;{
                 ;   // 0,   1,   2,   3,   4,   5,   6,   7,   8,   9,   H,   L,   E,   o,   P,  F,
                 ;   0x3f,0x06,0x5b,0x4f,0x66,0x6d,0x7d,0x27,0x7f,0x6f,0x76,0x38,0x79,0x5c,0x73,0x71,
                 ;
                 ;   // C,    d,    A,    u,    T,    r,   b,
                 ;   0x39, 0x5e, 0x77, 0x1c, 0x44, 0x50, 0x7c
                 ;};
                 ;
                 ;
                 ;// fnd maseg display
                 ;#define O   0x0d   //o display
                 ;#define F   0x0f    // F display
                 ;#define H   0x0a    // H   "
                 ;#define L   0x0b    // L   "
                 ;#define E   0x0c    // E   "
                 ;#define P   0x0e    // P   "
                 ;#define C   16 //0x10    // C   "
                 ;#define D   0x11    // d   "
                 ;#define A   0x12    // A   "
                 ;#define U   0x13    // u   "
                 ;#define T   0x14    // t   "
                 ;#define R   0x15    // r   "
                 ;#define b   0x16    // b   "
                 ;#define BLK 0x00   // fnd blk display
                 ;
                 ;
                 ;#define fnd_out(val) PORTC = val
                 ;
                 ;
                 ;
                 ;void fnd_dis(char data, char port_data1, char port_data2)                // 0~3, 6  FND 
                 ; 0000 000C {
                 _fnd_dis:
                 ; .FSTART _fnd_dis
                 ;
                 ;  scan++;
000981 93aa      	ST   -Y,R26
                 ;	data -> Y+2
                 ;	port_data1 -> Y+1
                 ;	port_data2 -> Y+0
000982 91e0 0538 	LDS  R30,_scan
000984 5fef      	SUBI R30,-LOW(1)
000985 93e0 0538 	STS  _scan,R30
                 ;  if(scan > 2) scan = 1;
000987 91a0 0538 	LDS  R26,_scan
000989 30a3      	CPI  R26,LOW(0x3)
00098a f018      	BRLO _0x31
00098b e0e1      	LDI  R30,LOW(1)
00098c 93e0 0538 	STS  _scan,R30
                 ;
                 ;  switch(scan)
                 _0x31:
00098e 91e0 0538 	LDS  R30,_scan
000990 e0f0      	LDI  R31,0
                 ;   {
                 ;     case 1:
000991 30e1      	CPI  R30,LOW(0x1)
000992 e0a0      	LDI  R26,HIGH(0x1)
000993 07fa      	CPC  R31,R26
000994 f481      	BRNE _0x35
                 ;            PORTF = 0x00;
000995 e0e0      	LDI  R30,LOW(0)
000996 93e0 0062 	STS  98,R30
                 ;
                 ;            fnd_out(~fnd_font[data/10]);
000998 81aa      	LDD  R26,Y+2
000999 e0b0      	LDI  R27,0
00099a e0ea      	LDI  R30,LOW(10)
00099b e0f0      	LDI  R31,HIGH(10)
00099c 940e 1142 	CALL __DIVW21
00099e 57e4      	SUBI R30,LOW(-_fnd_font*2)
00099f 4fff      	SBCI R31,HIGH(-_fnd_font*2)
0009a0 91e4      	LPM  R30,Z
0009a1 95e0      	COM  R30
0009a2 bbe5      	OUT  0x15,R30
                 ;
                 ;            PORTF = port_data1;
0009a3 81e9      	LDD  R30,Y+1
0009a4 c013      	RJMP _0xEE
                 ;
                 ;     break;
                 ;
                 ;    case 2:
                 _0x35:
0009a5 30e2      	CPI  R30,LOW(0x2)
0009a6 e0a0      	LDI  R26,HIGH(0x2)
0009a7 07fa      	CPC  R31,R26
0009a8 f489      	BRNE _0x34
                 ;            PORTF = 0x00;
0009a9 e0e0      	LDI  R30,LOW(0)
0009aa 93e0 0062 	STS  98,R30
                 ;
                 ;            fnd_out(~fnd_font[data%10]);
0009ac 81aa      	LDD  R26,Y+2
0009ad 27bb      	CLR  R27
0009ae e0ea      	LDI  R30,LOW(10)
0009af e0f0      	LDI  R31,HIGH(10)
0009b0 940e 1147 	CALL __MODW21
0009b2 57e4      	SUBI R30,LOW(-_fnd_font*2)
0009b3 4fff      	SBCI R31,HIGH(-_fnd_font*2)
0009b4 91e4      	LPM  R30,Z
0009b5 95e0      	COM  R30
0009b6 bbe5      	OUT  0x15,R30
                 ;
                 ;            PORTF = port_data2;
0009b7 81e8      	LD   R30,Y
                 _0xEE:
0009b8 93e0 0062 	STS  98,R30
                 ;     break;
                 ;
                 ;   }
                 _0x34:
                 ;}
0009ba 940c 0d93 	JMP  _0x2060003
                 ; .FEND
                 ;
                 ;#endif
                 ;#include "ext_int.c"
                 ;
                 ;
                 ;#ifndef _ext_int_
                 ;#define _ext_int_
                 ;
                 ;
                 ;#define G_INT_ON  #asm("sei")
                 ;#define G_INT_OFF #asm("cli")
                 ;//#define g_on  SREG = 0x80
                 ;
                 ;#define key8  PINE.4
                 ;#define INT4_ON   bit_set(EIMSK, 4)
                 ;#define INT4_OFF  bit_clr(EIMSK, 4)
                 ;#define bit_set(ADDRESS, BIT) (ADDRESS |= (1<<BIT)) // bit hi
                 ;#define bit_clr(ADDRESS, BIT) (ADDRESS &= ~(1<<BIT)) // bit low
                 ;#define bit_chk(ADDRESS, BIT) (ADDRESS & (1<<BIT))  // bit chak
                 ;
                 ;#include "Counter.c"
                 ;#ifndef _Counter_
                 ;#define _Counter_
                 ;
                 ;char cnt1 = 121;
                 ;char cnt2 = 0;
                 ;
                 ;
                 ;#include "leddis.c"
                 ;
                 ;
                 ;void Counter_add()
                 ;{
                 ;        if(cnt1 > 0){
                 ;            cnt1--;
                 ;            if(cnt1 >60){
                 ;                printf("Green  %d sec", cnt1-60);
                 ;                printf("\r");
                 ;            }
                 ;            if(cnt1 <= 60){
                 ;                printf("Red  %d sec", 120+cnt1);
                 ;                printf("\r");
                 ;            }
                 ;            if(cnt1 == 0)cnt2 = 121;
                 ;            led_change(cnt1, cnt2);
                 ;            led_ad();
                 ;            return;
                 ;        }
                 ;        if(cnt2 > 0){
                 ;            cnt2--;
                 ;            printf("Red  %d sec", cnt2);
                 ;            printf("\r");
                 ;            if(cnt2 == 0)cnt1 = 121;
                 ;            led_change(cnt1, cnt2);
                 ;            led_ad();
                 ;            return;
                 ;        }
                 ;
                 ;}
                 ;
                 ;#endif
                 ;
                 ;interrupt [EXT_INT4] void ext_int4_isr(void)
                 ; 0000 000D {
                 _ext_int4_isr:
                 ; .FSTART _ext_int4_isr
0009bc 940e 0fc9 	CALL SUBOPT_0xD
                 ;  INT4_OFF;
0009be 7eef      	ANDI R30,0xEF
0009bf bfe9      	OUT  0x39,R30
                 ;  if(key8 == 0) // if((PINE & 0x10) != 0x10)
0009c0 990c      	SBIC 0x1,4
0009c1 c00a      	RJMP _0x37
                 ;   {
                 ;     delay_ms(5);
0009c2 940e 0fd8 	CALL SUBOPT_0xE
                 ;     if(key8 == 0) // if((PINE & 0x10) != 0x10)
0009c4 990c      	SBIC 0x1,4
0009c5 c006      	RJMP _0x38
                 ;      {
                 ;        delay_ms(2);
0009c6 940e 0fdc 	CALL SUBOPT_0xF
                 ;        if(key8 == 0) // if((PINE & 0x10) != 0x10)
0009c8 990c      	SBIC 0x1,4
0009c9 c002      	RJMP _0x39
                 ;        {
                 ;          // key in ok
                 ;          key4_flag = 1;
0009ca e0e1      	LDI  R30,LOW(1)
0009cb 2ede      	MOV  R13,R30
                 ;        }
                 ;      }
                 _0x39:
                 ;   }
                 _0x38:
                 ;  INT4_ON;
                 _0x37:
0009cc b7e9      	IN   R30,0x39
0009cd 61e0      	ORI  R30,0x10
0009ce bfe9      	OUT  0x39,R30
                 ;}
0009cf c299      	RJMP _0xFA
                 ; .FEND
                 ;
                 ;
                 ;interrupt [EXT_INT5] void ext_int5_isr(void)
                 ;{
                 _ext_int5_isr:
                 ; .FSTART _ext_int5_isr
0009d0 940e 0fc9 	CALL SUBOPT_0xD
                 ;   bit_clr(EIMSK, 5);
0009d2 7def      	ANDI R30,0xDF
0009d3 bfe9      	OUT  0x39,R30
                 ;  if(PINE.5 == 0) // if((PINE & 0x10) != 0x10)
0009d4 990d      	SBIC 0x1,5
0009d5 c00a      	RJMP _0x3A
                 ;   {
                 ;     delay_ms(5);
0009d6 940e 0fd8 	CALL SUBOPT_0xE
                 ;     if(PINE.5 == 0) // if((PINE & 0x10) != 0x10)
0009d8 990d      	SBIC 0x1,5
0009d9 c006      	RJMP _0x3B
                 ;      {
                 ;        delay_ms(2);
0009da 940e 0fdc 	CALL SUBOPT_0xF
                 ;        if(PINE.5 == 0) // if((PINE & 0x10) != 0x10)
0009dc 990d      	SBIC 0x1,5
0009dd c002      	RJMP _0x3C
                 ;        {
                 ;          // key in ok
                 ;          key5_flag = 1;
0009de e0e1      	LDI  R30,LOW(1)
0009df 2ece      	MOV  R12,R30
                 ;        }
                 ;      }
                 _0x3C:
                 ;   }
                 _0x3B:
                 ;  bit_set(EIMSK, 5);
                 _0x3A:
0009e0 b7e9      	IN   R30,0x39
0009e1 62e0      	ORI  R30,0x20
0009e2 bfe9      	OUT  0x39,R30
                 ;  //printf("4");
                 ;}
0009e3 c285      	RJMP _0xFA
                 ; .FEND
                 ;
                 ;
                 ;interrupt [EXT_INT6] void ext_int6_isr(void)
                 ;{
                 _ext_int6_isr:
                 ; .FSTART _ext_int6_isr
0009e4 940e 0fc9 	CALL SUBOPT_0xD
                 ;   bit_clr(EIMSK, 6);
0009e6 7bef      	ANDI R30,0xBF
0009e7 bfe9      	OUT  0x39,R30
                 ;  if(PINE.6 == 0) // if((PINE & 0x10) != 0x10)
0009e8 990e      	SBIC 0x1,6
0009e9 c015      	RJMP _0x3D
                 ;   {
                 ;     delay_ms(5);
0009ea 940e 0fd8 	CALL SUBOPT_0xE
                 ;     if(PINE.6 == 0) // if((PINE & 0x10) != 0x10)
0009ec 990e      	SBIC 0x1,6
0009ed c011      	RJMP _0x3E
                 ;      {
                 ;        delay_ms(2);
0009ee 940e 0fdc 	CALL SUBOPT_0xF
                 ;        if(PINE.6 == 0) // if((PINE & 0x10) != 0x10)
0009f0 990e      	SBIC 0x1,6
0009f1 c00d      	RJMP _0x3F
                 ;        {
                 ;          // key in ok
                 ;          key6_flag = 1;
0009f2 e0e1      	LDI  R30,LOW(1)
0009f3 93e0 0500 	STS  _key6_flag,R30
                 ;          time_count++;
0009f5 01f5      	MOVW R30,R10
0009f6 9631      	ADIW R30,1
0009f7 015f      	MOVW R10,R30
                 ;          if(time_count == 3)time_count = 0;
0009f8 e0e3      	LDI  R30,LOW(3)
0009f9 e0f0      	LDI  R31,HIGH(3)
0009fa 15ea      	CP   R30,R10
0009fb 05fb      	CPC  R31,R11
0009fc f411      	BRNE _0x40
0009fd 24aa      	CLR  R10
0009fe 24bb      	CLR  R11
                 ;        }
                 _0x40:
                 ;      }
                 _0x3F:
                 ;   }
                 _0x3E:
                 ;  bit_set(EIMSK, 6);
                 _0x3D:
0009ff b7e9      	IN   R30,0x39
000a00 64e0      	ORI  R30,0x40
000a01 bfe9      	OUT  0x39,R30
                 ;}
000a02 c266      	RJMP _0xFA
                 ; .FEND
                 ;
                 ;
                 ;interrupt [EXT_INT7] void ext_int7_isr(void)
                 ;{
                 _ext_int7_isr:
                 ; .FSTART _ext_int7_isr
000a03 940e 0fc9 	CALL SUBOPT_0xD
                 ;    bit_clr(EIMSK, 7);
000a05 77ef      	ANDI R30,0x7F
000a06 bfe9      	OUT  0x39,R30
                 ;  if(PINE.7 == 0) // if((PINE & 0x10) != 0x10)
000a07 990f      	SBIC 0x1,7
000a08 c00b      	RJMP _0x41
                 ;   {
                 ;     delay_ms(5);
000a09 940e 0fd8 	CALL SUBOPT_0xE
                 ;     if(PINE.7 == 0) // if((PINE & 0x10) != 0x10)
000a0b 990f      	SBIC 0x1,7
000a0c c007      	RJMP _0x42
                 ;      {
                 ;        delay_ms(2);
000a0d 940e 0fdc 	CALL SUBOPT_0xF
                 ;        if(PINE.7 == 0) // if((PINE & 0x10) != 0x10)
000a0f 990f      	SBIC 0x1,7
000a10 c003      	RJMP _0x43
                 ;        {
                 ;          // key in ok
                 ;          key7_flag = 1;
000a11 e0e1      	LDI  R30,LOW(1)
000a12 93e0 0501 	STS  _key7_flag,R30
                 ;        }
                 ;      }
                 _0x43:
                 ;   }
                 _0x42:
                 ;  bit_set(EIMSK, 7);
                 _0x41:
000a14 b7e9      	IN   R30,0x39
000a15 68e0      	ORI  R30,0x80
000a16 bfe9      	OUT  0x39,R30
                 ;}
000a17 c251      	RJMP _0xFA
                 ; .FEND
                 ;
                 ;
                 ;
                 ;#endif
                 ;#include "Glcd_func.c"
                 ;#ifndef __Glcd_func__
                 ;#define __Glcd_func__
                 ;
                 ;int lcd_loop = 0;
                 ;char sec = 0, min = 0, hour = 0, load = 1;
                 
                 	.DSEG
                 ;char buf[3];
                 ;
                 ;#include "glcd_128.h"
                 
                 	.CSEG
                 _GLCD_Print_Picture:
                 ; .FSTART _GLCD_Print_Picture
000a18 93aa      	ST   -Y,R26
000a19 940e 1172 	CALL __SAVELOCR4
                 ;	Picture_Select -> Y+4
                 ;	x -> R17
                 ;	y -> R16
                 ;	Count -> R18,R19
000a1b e010      	LDI  R17,0
000a1c e000      	LDI  R16,0
                +
000a1d e020     +LDI R18 , LOW ( 0 )
000a1e e030     +LDI R19 , HIGH ( 0 )
                 	__GETWRN 18,19,0
000a1f 9adb      	SBI  0x1B,3
000a20 98dc      	CBI  0x1B,4
000a21 e010      	LDI  R17,LOW(0)
                 _0x4A:
000a22 3410      	CPI  R17,64
000a23 f4f8      	BRSH _0x4B
000a24 e000      	LDI  R16,LOW(0)
                 _0x4D:
000a25 3008      	CPI  R16,8
000a26 f4d0      	BRSH _0x4E
000a27 940e 0fe0 	CALL SUBOPT_0x10
000a29 f421      	BRNE _0x4F
000a2a 01f9      	MOVW R30,R18
000a2b 58e0      	SUBI R30,LOW(-_screen1*2)
000a2c 4ffd      	SBCI R31,HIGH(-_screen1*2)
000a2d c00d      	RJMP _0xEF
                 _0x4F:
000a2e 81ac      	LDD  R26,Y+4
000a2f 30a2      	CPI  R26,LOW(0x2)
000a30 f421      	BRNE _0x51
000a31 01f9      	MOVW R30,R18
000a32 58e0      	SUBI R30,LOW(-_screen2*2)
000a33 4ff9      	SBCI R31,HIGH(-_screen2*2)
000a34 c006      	RJMP _0xEF
                 _0x51:
000a35 81ac      	LDD  R26,Y+4
000a36 30a3      	CPI  R26,LOW(0x3)
000a37 f429      	BRNE _0x53
000a38 01f9      	MOVW R30,R18
000a39 58e0      	SUBI R30,LOW(-_screen3*2)
000a3a 4ff5      	SBCI R31,HIGH(-_screen3*2)
                 _0xEF:
000a3b 91a4      	LPM  R26,Z
000a3c d08d      	RCALL _Write_Data
                 _0x53:
                +
000a3d 5f2f     +SUBI R18 , LOW ( - 1 )
000a3e 4f3f     +SBCI R19 , HIGH ( - 1 )
                 	__ADDWRN 18,19,1
000a3f 5f0f      	SUBI R16,-1
000a40 cfe4      	RJMP _0x4D
                 _0x4E:
000a41 5f1f      	SUBI R17,-1
000a42 cfdf      	RJMP _0x4A
                 _0x4B:
000a43 98db      	CBI  0x1B,3
000a44 9adc      	SBI  0x1B,4
000a45 e010      	LDI  R17,LOW(0)
                 _0x59:
000a46 3410      	CPI  R17,64
000a47 f4f8      	BRSH _0x5A
000a48 e000      	LDI  R16,LOW(0)
                 _0x5C:
000a49 3008      	CPI  R16,8
000a4a f4d0      	BRSH _0x5D
000a4b 940e 0fe0 	CALL SUBOPT_0x10
000a4d f421      	BRNE _0x5E
000a4e 01f9      	MOVW R30,R18
000a4f 58e0      	SUBI R30,LOW(-_screen1*2)
000a50 4ffd      	SBCI R31,HIGH(-_screen1*2)
000a51 c00d      	RJMP _0xF0
                 _0x5E:
000a52 81ac      	LDD  R26,Y+4
000a53 30a2      	CPI  R26,LOW(0x2)
000a54 f421      	BRNE _0x60
000a55 01f9      	MOVW R30,R18
000a56 58e0      	SUBI R30,LOW(-_screen2*2)
000a57 4ff9      	SBCI R31,HIGH(-_screen2*2)
000a58 c006      	RJMP _0xF0
                 _0x60:
000a59 81ac      	LDD  R26,Y+4
000a5a 30a3      	CPI  R26,LOW(0x3)
000a5b f429      	BRNE _0x62
000a5c 01f9      	MOVW R30,R18
000a5d 58e0      	SUBI R30,LOW(-_screen3*2)
000a5e 4ff5      	SBCI R31,HIGH(-_screen3*2)
                 _0xF0:
000a5f 91a4      	LPM  R26,Z
000a60 d069      	RCALL _Write_Data
                 _0x62:
                +
000a61 5f2f     +SUBI R18 , LOW ( - 1 )
000a62 4f3f     +SBCI R19 , HIGH ( - 1 )
                 	__ADDWRN 18,19,1
000a63 5f0f      	SUBI R16,-1
000a64 cfe4      	RJMP _0x5C
                 _0x5D:
000a65 5f1f      	SUBI R17,-1
000a66 cfdf      	RJMP _0x59
                 _0x5A:
000a67 940e 1179 	CALL __LOADLOCR4
000a69 940c 0dcd 	JMP  _0x2060002
                 ; .FEND
                 _Write_String_6x8:
                 ; .FSTART _Write_String_6x8
000a6b 93ba      	ST   -Y,R27
000a6c 93aa      	ST   -Y,R26
                 ;	x -> Y+3
                 ;	y -> Y+2
                 ;	*string -> Y+0
000a6d 9adb      	SBI  0x1B,3
000a6e 98dc      	CBI  0x1B,4
                 _0x67:
000a6f 81e8      	LD   R30,Y
000a70 81f9      	LDD  R31,Y+1
000a71 91e4      	LPM  R30,Z
000a72 30e0      	CPI  R30,0
000a73 f089      	BREQ _0x69
000a74 81eb      	LDD  R30,Y+3
000a75 93ea      	ST   -Y,R30
000a76 81eb      	LDD  R30,Y+3
000a77 93ea      	ST   -Y,R30
000a78 81ea      	LDD  R30,Y+2
000a79 81fb      	LDD  R31,Y+2+1
000a7a 91a4      	LPM  R26,Z
000a7b d00a      	RCALL _Write_Char
000a7c 81e8      	LD   R30,Y
000a7d 81f9      	LDD  R31,Y+1
000a7e 9631      	ADIW R30,1
000a7f 83e8      	ST   Y,R30
000a80 83f9      	STD  Y+1,R31
000a81 81eb      	LDD  R30,Y+3
000a82 5fef      	SUBI R30,-LOW(1)
000a83 83eb      	STD  Y+3,R30
000a84 cfea      	RJMP _0x67
                 _0x69:
000a85 c029      	RJMP _0x2060006
                 ; .FEND
                 _Write_Char:
                 ; .FSTART _Write_Char
000a86 93aa      	ST   -Y,R26
000a87 931a      	ST   -Y,R17
                 ;	x -> Y+3
                 ;	y -> Y+2
                 ;	Byte -> Y+1
                 ;	i -> R17
000a88 81ab      	LDD  R26,Y+3
000a89 30aa      	CPI  R26,LOW(0xA)
000a8a f018      	BRLO _0x6A
000a8b 98db      	CBI  0x1B,3
000a8c 9adc      	SBI  0x1B,4
000a8d c002      	RJMP _0x6F
                 _0x6A:
000a8e 9adb      	SBI  0x1B,3
000a8f 98dc      	CBI  0x1B,4
                 _0x6F:
000a90 e014      	LDI  R17,LOW(4)
                 _0x75:
000a91 3019      	CPI  R17,9
000a92 f4d8      	BRSH _0x76
000a93 81eb      	LDD  R30,Y+3
000a94 e0a6      	LDI  R26,LOW(6)
000a95 02ea      	MULS R30,R26
000a96 01f0      	MOVW R30,R0
000a97 0fe1      	ADD  R30,R17
000a98 93ea      	ST   -Y,R30
000a99 81ab      	LDD  R26,Y+3
000a9a d028      	RCALL _lcd_gotoxy
000a9b 81e9      	LDD  R30,Y+1
000a9c e0f0      	LDI  R31,0
000a9d 97b0      	SBIW R30,32
000a9e e0a5      	LDI  R26,LOW(5)
000a9f e0b0      	LDI  R27,HIGH(5)
000aa0 940e 1121 	CALL __MULW12U
000aa2 55ec      	SUBI R30,LOW(-_font*2)
000aa3 4fff      	SBCI R31,HIGH(-_font*2)
000aa4 01df      	MOVW R26,R30
000aa5 2fe1      	MOV  R30,R17
000aa6 e0f0      	LDI  R31,0
000aa7 9734      	SBIW R30,4
000aa8 0fea      	ADD  R30,R26
000aa9 1ffb      	ADC  R31,R27
000aaa 91a4      	LPM  R26,Z
000aab d01e      	RCALL _Write_Data
000aac 5f1f      	SUBI R17,-1
000aad cfe3      	RJMP _0x75
                 _0x76:
000aae 8118      	LDD  R17,Y+0
                 _0x2060006:
000aaf 9624      	ADIW R28,4
000ab0 9508      	RET
                 ; .FEND
                 ;	x -> R17
                 ;	y -> R16
                 _lcd_gotox:
                 ; .FSTART _lcd_gotox
000ab1 93aa      	ST   -Y,R26
                 ;	lcd_gotox -> Y+0
000ab2 98d8      	CBI  0x1B,0
000ab3 98d9      	CBI  0x1B,1
000ab4 81e8      	LD   R30,Y
000ab5 64e0      	ORI  R30,0x40
000ab6 bbe8      	OUT  0x18,R30
000ab7 d020      	RCALL _E_Pulse
000ab8 940c 0d89 	JMP  _0x2060004
                 ; .FEND
                 _lcd_gotopage:
                 ; .FSTART _lcd_gotopage
000aba 93aa      	ST   -Y,R26
                 ;	Page -> Y+0
000abb 98d8      	CBI  0x1B,0
000abc 98d9      	CBI  0x1B,1
000abd 81e8      	LD   R30,Y
000abe 6be8      	ORI  R30,LOW(0xB8)
000abf bbe8      	OUT  0x18,R30
000ac0 d017      	RCALL _E_Pulse
000ac1 940c 0d89 	JMP  _0x2060004
                 ; .FEND
                 _lcd_gotoxy:
                 ; .FSTART _lcd_gotoxy
000ac3 93aa      	ST   -Y,R26
                 ;	x -> Y+1
                 ;	y -> Y+0
000ac4 81a9      	LDD  R26,Y+1
000ac5 dfeb      	RCALL _lcd_gotox
000ac6 81a8      	LD   R26,Y
000ac7 dff2      	RCALL _lcd_gotopage
                 _0x2060005:
000ac8 9622      	ADIW R28,2
000ac9 9508      	RET
                 ; .FEND
                 _Write_Data:
                 ; .FSTART _Write_Data
000aca 93aa      	ST   -Y,R26
                 ;	Write_Data -> Y+0
000acb 9ad8      	SBI  0x1B,0
000acc 98d9      	CBI  0x1B,1
000acd 81e8      	LD   R30,Y
000ace bbe8      	OUT  0x18,R30
000acf d008      	RCALL _E_Pulse
000ad0 940c 0d89 	JMP  _0x2060004
                 ; .FEND
                 _GLCD_Init:
                 ; .FSTART _GLCD_Init
000ad2 98d9      	CBI  0x1B,1
000ad3 98d8      	CBI  0x1B,0
000ad4 e3ef      	LDI  R30,LOW(63)
000ad5 bbe8      	OUT  0x18,R30
000ad6 d001      	RCALL _E_Pulse
000ad7 9508      	RET
                 ; .FEND
                 _E_Pulse:
                 ; .FSTART _E_Pulse
000ad8 9ada      	SBI  0x1B,2
000ad9 98da      	CBI  0x1B,2
000ada 9508      	RET
                 ; .FEND
                 _MCU_Init:
                 ; .FSTART _MCU_Init
000adb efef      	LDI  R30,LOW(255)
000adc bbe7      	OUT  0x17,R30
000add bbea      	OUT  0x1A,R30
000ade 9adb      	SBI  0x1B,3
000adf 9508      	RET
                 ; .FEND
                 ;
                 ;
                 ;void func_init(){
                 ; 0000 000E void func_init(){
                 _func_init:
                 ; .FSTART _func_init
                 ;    GLCD_Init();
000ae0 dff1      	RCALL _GLCD_Init
                 ;    MCU_Init();
000ae1 dff9      	RCALL _MCU_Init
                 ;    hour = 8;
000ae2 e0e8      	LDI  R30,LOW(8)
000ae3 93e0 053d 	STS  _hour,R30
                 ;    min = 30;
000ae5 e1ee      	LDI  R30,LOW(30)
000ae6 93e0 053c 	STS  _min,R30
                 ;    sec = 30;
000ae8 93e0 053b 	STS  _sec,R30
                 ;}
000aea 9508      	RET
                 ; .FEND
                 ;
                 ;void disp()
                 ;{
                 _disp:
                 ; .FSTART _disp
                 ;  sprintf(buf,"%2d",hour);
000aeb 940e 0fe9 	CALL SUBOPT_0x11
000aed 91e0 053d 	LDS  R30,_hour
000aef 940e 0fc2 	CALL SUBOPT_0xC
000af1 940e 0ff2 	CALL SUBOPT_0x12
                 ;  if(key6_flag == 1){
000af3 f4d9      	BRNE _0x97
                 ;    if(led_flag == 0 & time_count == 0){
000af4 940e 0ff9 	CALL SUBOPT_0x13
000af6 e0e0      	LDI  R30,LOW(0)
000af7 e0f0      	LDI  R31,HIGH(0)
000af8 940e 111b 	CALL __EQW12
000afa 21e0      	AND  R30,R0
000afb f039      	BREQ _0x98
                 ;        Write_Char(12, 0, ' '); Write_Char(13, 0, ' '); Write_Char(14, 0, ':');
000afc 940e 1001 	CALL SUBOPT_0x14
000afe e2a0      	LDI  R26,LOW(32)
000aff 940e 1006 	CALL SUBOPT_0x15
000b01 e2a0      	LDI  R26,LOW(32)
000b02 c008      	RJMP _0xF1
                 ;    }
                 ;    else {
                 _0x98:
                 ;        Write_Char(12, 0, buf[0]); Write_Char(13, 0, buf[1]); Write_Char(14, 0, ':');
000b03 940e 1001 	CALL SUBOPT_0x14
000b05 91a0 053f 	LDS  R26,_buf
000b07 940e 1006 	CALL SUBOPT_0x15
                +
000b09 91a0 0540+LDS R26 , _buf + ( 1 )
                 	__GETB2MN _buf,1
                 _0xF1:
000b0b df7a      	RCALL _Write_Char
000b0c 940e 100d 	CALL SUBOPT_0x16
                 ;        }
                 ;  }
                 ;  else {
000b0e c00a      	RJMP _0x9A
                 _0x97:
                 ;    Write_Char(12, 0, buf[0]); Write_Char(13, 0, buf[1]); Write_Char(14, 0, ':');
000b0f 940e 1001 	CALL SUBOPT_0x14
000b11 91a0 053f 	LDS  R26,_buf
000b13 940e 1006 	CALL SUBOPT_0x15
000b15 940e 1014 	CALL SUBOPT_0x17
000b17 940e 100d 	CALL SUBOPT_0x16
                 ;  }
                 _0x9A:
                 ;
                 ;  sprintf(buf,"%2d",min);
000b19 940e 0fe9 	CALL SUBOPT_0x11
000b1b 91e0 053c 	LDS  R30,_min
000b1d 940e 0fc2 	CALL SUBOPT_0xC
000b1f 940e 0ff2 	CALL SUBOPT_0x12
                 ;
                 ;  if(key6_flag == 1){
000b21 f4d9      	BRNE _0x9B
                 ;    if(led_flag == 0 & time_count == 1){
000b22 940e 0ff9 	CALL SUBOPT_0x13
000b24 e0e1      	LDI  R30,LOW(1)
000b25 e0f0      	LDI  R31,HIGH(1)
000b26 940e 111b 	CALL __EQW12
000b28 21e0      	AND  R30,R0
000b29 f039      	BREQ _0x9C
                 ;        Write_Char(15, 0, ' '); Write_Char(16, 0, ' '); Write_Char(17, 0, ':');
000b2a 940e 1018 	CALL SUBOPT_0x18
000b2c e2a0      	LDI  R26,LOW(32)
000b2d 940e 101d 	CALL SUBOPT_0x19
000b2f e2a0      	LDI  R26,LOW(32)
000b30 c008      	RJMP _0xF2
                 ;    }
                 ;    else {
                 _0x9C:
                 ;        Write_Char(15, 0, buf[0]); Write_Char(16, 0, buf[1]); Write_Char(17, 0, ':');
000b31 940e 1018 	CALL SUBOPT_0x18
000b33 91a0 053f 	LDS  R26,_buf
000b35 940e 101d 	CALL SUBOPT_0x19
                +
000b37 91a0 0540+LDS R26 , _buf + ( 1 )
                 	__GETB2MN _buf,1
                 _0xF2:
000b39 df4c      	RCALL _Write_Char
000b3a 940e 1024 	CALL SUBOPT_0x1A
                 ;        }
                 ;  }
                 ;  else {
000b3c c00a      	RJMP _0x9E
                 _0x9B:
                 ;    Write_Char(15, 0, buf[0]); Write_Char(16, 0, buf[1]); Write_Char(17, 0, ':');
000b3d 940e 1018 	CALL SUBOPT_0x18
000b3f 91a0 053f 	LDS  R26,_buf
000b41 940e 101d 	CALL SUBOPT_0x19
000b43 940e 1014 	CALL SUBOPT_0x17
000b45 940e 1024 	CALL SUBOPT_0x1A
                 ;  }
                 _0x9E:
                 ;
                 ;  //Write_Char(15, 0, buf[0]); Write_Char(16, 0, buf[1]); Write_Char(17, 0, ':');
                 ;
                 ;  sprintf(buf,"%2d",sec);
000b47 940e 0fe9 	CALL SUBOPT_0x11
000b49 91e0 053b 	LDS  R30,_sec
000b4b 940e 0fc2 	CALL SUBOPT_0xC
000b4d 940e 0ff2 	CALL SUBOPT_0x12
                 ;
                 ;  if(key6_flag == 1){
000b4f f4c9      	BRNE _0x9F
                 ;    if(led_flag == 0 & time_count == 2){
000b50 940e 0ff9 	CALL SUBOPT_0x13
000b52 e0e2      	LDI  R30,LOW(2)
000b53 e0f0      	LDI  R31,HIGH(2)
000b54 940e 111b 	CALL __EQW12
000b56 21e0      	AND  R30,R0
000b57 f039      	BREQ _0xA0
                 ;        Write_Char(18, 0, ' '); Write_Char(19, 0, ' ');
000b58 940e 102b 	CALL SUBOPT_0x1B
000b5a e2a0      	LDI  R26,LOW(32)
000b5b 940e 1030 	CALL SUBOPT_0x1C
000b5d e2a0      	LDI  R26,LOW(32)
000b5e c008      	RJMP _0xF3
                 ;    }
                 ;    else {
                 _0xA0:
                 ;        Write_Char(18, 0, buf[0]); Write_Char(19, 0, buf[1]);
000b5f 940e 102b 	CALL SUBOPT_0x1B
000b61 91a0 053f 	LDS  R26,_buf
000b63 940e 1030 	CALL SUBOPT_0x1C
                +
000b65 91a0 0540+LDS R26 , _buf + ( 1 )
                 	__GETB2MN _buf,1
                 _0xF3:
000b67 df1e      	RCALL _Write_Char
                 ;        }
                 ;  }
                 ;  else {
000b68 c008      	RJMP _0xA2
                 _0x9F:
                 ;    Write_Char(18, 0, buf[0]); Write_Char(19, 0, buf[1]);
000b69 940e 102b 	CALL SUBOPT_0x1B
000b6b 91a0 053f 	LDS  R26,_buf
000b6d 940e 1030 	CALL SUBOPT_0x1C
000b6f 940e 1014 	CALL SUBOPT_0x17
                 ;  }
                 _0xA2:
                 ;
                 ;  //Write_Char(18, 0, buf[0]); Write_Char(19, 0, buf[1]);
                 ;}
000b71 9508      	RET
                 ; .FEND
                 ;
                 ;void glcd_dis(){
                 _glcd_dis:
                 ; .FSTART _glcd_dis
                 ;    lcd_loop = 0;
000b72 e0e0      	LDI  R30,LOW(0)
000b73 93e0 0539 	STS  _lcd_loop,R30
000b75 93e0 053a 	STS  _lcd_loop+1,R30
                 ;    switch(load)
000b77 91e0 053e 	LDS  R30,_load
000b79 e0f0      	LDI  R31,0
                 ;    {
                 ;        case 1:
000b7a 30e1      	CPI  R30,LOW(0x1)
000b7b e0a0      	LDI  R26,HIGH(0x1)
000b7c 07fa      	CPC  R31,R26
000b7d f551      	BRNE _0xA6
                 ;            if(hour >= 9 & hour <= 18) GLCD_Print_Picture(1);
000b7e 940e 1037 	CALL SUBOPT_0x1D
000b80 f011      	BREQ _0xA7
000b81 e0a1      	LDI  R26,LOW(1)
000b82 de95      	RCALL _GLCD_Print_Picture
                 ;            if(hour >= 12 & hour <= 14) GLCD_Print_Picture(2);
                 _0xA7:
000b83 940e 1042 	CALL SUBOPT_0x1E
000b85 f011      	BREQ _0xA8
000b86 e0a2      	LDI  R26,LOW(2)
000b87 c004      	RJMP _0xF4
                 ;            else if((hour >= 8 & hour < 9) | (hour >18 & hour <= 20)) GLCD_Print_Picture(3);
                 _0xA8:
000b88 940e 104d 	CALL SUBOPT_0x1F
000b8a f011      	BREQ _0xAA
000b8b e0a3      	LDI  R26,LOW(3)
                 _0xF4:
000b8c de8b      	RCALL _GLCD_Print_Picture
                 ;            disp();
                 _0xAA:
000b8d 940e 1062 	CALL SUBOPT_0x20
                 ;            Write_String_6x8(10, 1, "Gajang");
                +
000b8f eca0     +LDI R26 , LOW ( 2 * _0x0 + ( 32 ) )
000b90 e0be     +LDI R27 , HIGH ( 2 * _0x0 + ( 32 ) )
                 	__POINTW2FN _0x0,32
000b91 940e 1069 	CALL SUBOPT_0x21
                 ;            Write_String_6x8(10, 3, "Limit 60Km");
000b93 e0e3      	LDI  R30,LOW(3)
000b94 93ea      	ST   -Y,R30
                +
000b95 eca7     +LDI R26 , LOW ( 2 * _0x0 + ( 39 ) )
000b96 e0be     +LDI R27 , HIGH ( 2 * _0x0 + ( 39 ) )
                 	__POINTW2FN _0x0,39
000b97 940e 1069 	CALL SUBOPT_0x21
                 ;            Write_String_6x8(10, 2, "STREET");
000b99 940e 106e 	CALL SUBOPT_0x22
                 ;            Write_String_6x8(9, 4, "->Sintanjin");
                +
000b9b eda9     +LDI R26 , LOW ( 2 * _0x0 + ( 57 ) )
000b9c e0be     +LDI R27 , HIGH ( 2 * _0x0 + ( 57 ) )
                 	__POINTW2FN _0x0,57
000b9d 940e 1069 	CALL SUBOPT_0x21
                 ;            Write_String_6x8(10, 5, "^Dongsedae");
000b9f e0e5      	LDI  R30,LOW(5)
000ba0 93ea      	ST   -Y,R30
                +
000ba1 eea5     +LDI R26 , LOW ( 2 * _0x0 + ( 69 ) )
000ba2 e0be     +LDI R27 , HIGH ( 2 * _0x0 + ( 69 ) )
                 	__POINTW2FN _0x0,69
000ba3 940e 1079 	CALL SUBOPT_0x23
                 ;            Write_String_6x8(9, 6, "<-Hanbatdae");
                +
000ba5 efa0     +LDI R26 , LOW ( 2 * _0x0 + ( 80 ) )
000ba6 e0be     +LDI R27 , HIGH ( 2 * _0x0 + ( 80 ) )
                 	__POINTW2FN _0x0,80
000ba7 c099      	RJMP _0xF5
                 ;        break;
                 ;
                 ;        case 2:
                 _0xA6:
000ba8 30e2      	CPI  R30,LOW(0x2)
000ba9 e0a0      	LDI  R26,HIGH(0x2)
000baa 07fa      	CPC  R31,R26
000bab f5b1      	BRNE _0xAB
                 ;            if(hour >= 10 & hour <= 18) GLCD_Print_Picture(1);
000bac 91a0 053d 	LDS  R26,_hour
000bae e0ea      	LDI  R30,LOW(10)
000baf 940e 1080 	CALL SUBOPT_0x24
000bb1 e1e2      	LDI  R30,LOW(18)
000bb2 940e 1107 	CALL __LEB12U
000bb4 21e0      	AND  R30,R0
000bb5 f011      	BREQ _0xAC
000bb6 e0a1      	LDI  R26,LOW(1)
000bb7 de60      	RCALL _GLCD_Print_Picture
                 ;            if(hour >= 12 & hour <= 14) GLCD_Print_Picture(2);
                 _0xAC:
000bb8 940e 1042 	CALL SUBOPT_0x1E
000bba f011      	BREQ _0xAD
000bbb e0a2      	LDI  R26,LOW(2)
000bbc c009      	RJMP _0xF6
                 ;            else if((hour >= 7 & hour < 9) | (hour >18 & hour <= 20)) GLCD_Print_Picture(3);
                 _0xAD:
000bbd 91a0 053d 	LDS  R26,_hour
000bbf e0e7      	LDI  R30,LOW(7)
000bc0 940e 1080 	CALL SUBOPT_0x24
000bc2 940e 1086 	CALL SUBOPT_0x25
000bc4 f011      	BREQ _0xAF
000bc5 e0a3      	LDI  R26,LOW(3)
                 _0xF6:
000bc6 de51      	RCALL _GLCD_Print_Picture
                 ;            disp();
                 _0xAF:
000bc7 940e 1062 	CALL SUBOPT_0x20
                 ;            Write_String_6x8(10, 1, "Sintanjin");
                +
000bc9 edab     +LDI R26 , LOW ( 2 * _0x0 + ( 59 ) )
000bca e0be     +LDI R27 , HIGH ( 2 * _0x0 + ( 59 ) )
                 	__POINTW2FN _0x0,59
000bcb 940e 1069 	CALL SUBOPT_0x21
                 ;            Write_String_6x8(10, 3, "Limit 50Km");
000bcd e0e3      	LDI  R30,LOW(3)
000bce 93ea      	ST   -Y,R30
                +
000bcf efac     +LDI R26 , LOW ( 2 * _0x0 + ( 92 ) )
000bd0 e0be     +LDI R27 , HIGH ( 2 * _0x0 + ( 92 ) )
                 	__POINTW2FN _0x0,92
000bd1 940e 1069 	CALL SUBOPT_0x21
                 ;            Write_String_6x8(10, 2, "STREET");
000bd3 940e 106e 	CALL SUBOPT_0x22
                 ;            Write_String_6x8(9, 4, "->Dongsedae");
                +
000bd5 e0a7     +LDI R26 , LOW ( 2 * _0x0 + ( 103 ) )
000bd6 e0bf     +LDI R27 , HIGH ( 2 * _0x0 + ( 103 ) )
                 	__POINTW2FN _0x0,103
000bd7 940e 1069 	CALL SUBOPT_0x21
                 ;            Write_String_6x8(10, 5, "^Hanbatdae");
000bd9 e0e5      	LDI  R30,LOW(5)
000bda 93ea      	ST   -Y,R30
                +
000bdb e1a3     +LDI R26 , LOW ( 2 * _0x0 + ( 115 ) )
000bdc e0bf     +LDI R27 , HIGH ( 2 * _0x0 + ( 115 ) )
                 	__POINTW2FN _0x0,115
000bdd 940e 1079 	CALL SUBOPT_0x23
                 ;            Write_String_6x8(9, 6, "<-Gajang");
                +
000bdf e1ae     +LDI R26 , LOW ( 2 * _0x0 + ( 126 ) )
000be0 e0bf     +LDI R27 , HIGH ( 2 * _0x0 + ( 126 ) )
                 	__POINTW2FN _0x0,126
000be1 c05f      	RJMP _0xF5
                 ;        break;
                 ;
                 ;        case 3:
                 _0xAB:
000be2 30e3      	CPI  R30,LOW(0x3)
000be3 e0a0      	LDI  R26,HIGH(0x3)
000be4 07fa      	CPC  R31,R26
000be5 f591      	BRNE _0xB0
                 ;            if(hour >= 9 & hour <= 18) GLCD_Print_Picture(1);
000be6 940e 1037 	CALL SUBOPT_0x1D
000be8 f011      	BREQ _0xB1
000be9 e0a1      	LDI  R26,LOW(1)
000bea de2d      	RCALL _GLCD_Print_Picture
                 ;            if(hour >= 11 & hour <= 13) GLCD_Print_Picture(2);
                 _0xB1:
000beb 91a0 053d 	LDS  R26,_hour
000bed e0eb      	LDI  R30,LOW(11)
000bee 940e 1080 	CALL SUBOPT_0x24
000bf0 e0ed      	LDI  R30,LOW(13)
000bf1 940e 1107 	CALL __LEB12U
000bf3 21e0      	AND  R30,R0
000bf4 f011      	BREQ _0xB2
000bf5 e0a2      	LDI  R26,LOW(2)
000bf6 c009      	RJMP _0xF7
                 ;            else if((hour >= 7 & hour < 9) | (hour >18 & hour <= 20)) GLCD_Print_Picture(3);
                 _0xB2:
000bf7 91a0 053d 	LDS  R26,_hour
000bf9 e0e7      	LDI  R30,LOW(7)
000bfa 940e 1080 	CALL SUBOPT_0x24
000bfc 940e 1086 	CALL SUBOPT_0x25
000bfe f011      	BREQ _0xB4
000bff e0a3      	LDI  R26,LOW(3)
                 _0xF7:
000c00 de17      	RCALL _GLCD_Print_Picture
                 ;            disp();
                 _0xB4:
000c01 940e 1062 	CALL SUBOPT_0x20
                 ;            Write_String_6x8(10, 1, "Dongsedae");
                +
000c03 eea6     +LDI R26 , LOW ( 2 * _0x0 + ( 70 ) )
000c04 e0be     +LDI R27 , HIGH ( 2 * _0x0 + ( 70 ) )
                 	__POINTW2FN _0x0,70
000c05 940e 1069 	CALL SUBOPT_0x21
                 ;            Write_String_6x8(10, 3, "Limit 80Km");
000c07 940e 1097 	CALL SUBOPT_0x26
                 ;            Write_String_6x8(10, 2, "STREET");
000c09 940e 106e 	CALL SUBOPT_0x22
                 ;            Write_String_6x8(9, 4, "->Hanbatdae");
                +
000c0b e3a2     +LDI R26 , LOW ( 2 * _0x0 + ( 146 ) )
000c0c e0bf     +LDI R27 , HIGH ( 2 * _0x0 + ( 146 ) )
                 	__POINTW2FN _0x0,146
000c0d 940e 1069 	CALL SUBOPT_0x21
                 ;            Write_String_6x8(10, 5, "^Gajang");
000c0f e0e5      	LDI  R30,LOW(5)
000c10 93ea      	ST   -Y,R30
                +
000c11 e3ae     +LDI R26 , LOW ( 2 * _0x0 + ( 158 ) )
000c12 e0bf     +LDI R27 , HIGH ( 2 * _0x0 + ( 158 ) )
                 	__POINTW2FN _0x0,158
000c13 940e 1079 	CALL SUBOPT_0x23
                 ;            Write_String_6x8(9, 6, "<-Sintanjin");
                +
000c15 e4a6     +LDI R26 , LOW ( 2 * _0x0 + ( 166 ) )
000c16 e0bf     +LDI R27 , HIGH ( 2 * _0x0 + ( 166 ) )
                 	__POINTW2FN _0x0,166
000c17 c029      	RJMP _0xF5
                 ;        break;
                 ;
                 ;        case 4:
                 _0xB0:
000c18 30e4      	CPI  R30,LOW(0x4)
000c19 e0a0      	LDI  R26,HIGH(0x4)
000c1a 07fa      	CPC  R31,R26
000c1b f531      	BRNE _0xA5
                 ;            if(hour >= 9 & hour <= 18) GLCD_Print_Picture(1);
000c1c 940e 1037 	CALL SUBOPT_0x1D
000c1e f011      	BREQ _0xB6
000c1f e0a1      	LDI  R26,LOW(1)
000c20 ddf7      	RCALL _GLCD_Print_Picture
                 ;            if(hour >= 12 & hour <= 14) GLCD_Print_Picture(2);
                 _0xB6:
000c21 940e 1042 	CALL SUBOPT_0x1E
000c23 f011      	BREQ _0xB7
000c24 e0a2      	LDI  R26,LOW(2)
000c25 c004      	RJMP _0xF8
                 ;            else if((hour >= 8 & hour < 9) | (hour >18 & hour <= 20)) GLCD_Print_Picture(3);
                 _0xB7:
000c26 940e 104d 	CALL SUBOPT_0x1F
000c28 f011      	BREQ _0xB9
000c29 e0a3      	LDI  R26,LOW(3)
                 _0xF8:
000c2a dded      	RCALL _GLCD_Print_Picture
                 ;            disp();
                 _0xB9:
000c2b 940e 1062 	CALL SUBOPT_0x20
                 ;            Write_String_6x8(10, 1, "Hanbatdae");
                +
000c2d efa2     +LDI R26 , LOW ( 2 * _0x0 + ( 82 ) )
000c2e e0be     +LDI R27 , HIGH ( 2 * _0x0 + ( 82 ) )
                 	__POINTW2FN _0x0,82
000c2f 940e 1069 	CALL SUBOPT_0x21
                 ;            Write_String_6x8(10, 3, "Limit 80Km");
000c31 940e 1097 	CALL SUBOPT_0x26
                 ;            Write_String_6x8(10, 2, "STREET");
000c33 940e 106e 	CALL SUBOPT_0x22
                 ;            Write_String_6x8(9, 4, "->Gajang");
                +
000c35 e5a2     +LDI R26 , LOW ( 2 * _0x0 + ( 178 ) )
000c36 e0bf     +LDI R27 , HIGH ( 2 * _0x0 + ( 178 ) )
                 	__POINTW2FN _0x0,178
000c37 940e 1069 	CALL SUBOPT_0x21
                 ;            Write_String_6x8(10, 5, "^Sintanjin");
000c39 e0e5      	LDI  R30,LOW(5)
000c3a 93ea      	ST   -Y,R30
                +
000c3b e5ab     +LDI R26 , LOW ( 2 * _0x0 + ( 187 ) )
000c3c e0bf     +LDI R27 , HIGH ( 2 * _0x0 + ( 187 ) )
                 	__POINTW2FN _0x0,187
000c3d 940e 1079 	CALL SUBOPT_0x23
                 ;            Write_String_6x8(9, 6, "<-Dongsedae");
                +
000c3f e6a6     +LDI R26 , LOW ( 2 * _0x0 + ( 198 ) )
000c40 e0bf     +LDI R27 , HIGH ( 2 * _0x0 + ( 198 ) )
                 	__POINTW2FN _0x0,198
                 _0xF5:
000c41 de29      	RCALL _Write_String_6x8
                 ;        break;
                 ;    }
                 _0xA5:
                 ;
                 ;
                 ;}
000c42 9508      	RET
                 ; .FEND
                 ;#endif
                 ;
                 ;interrupt [TIM0_OVF] void timer0_ovf_isr(void)
                 ; 0000 0011 {
                 _timer0_ovf_isr:
                 ; .FSTART _timer0_ovf_isr
000c43 920a      	ST   -Y,R0
000c44 921a      	ST   -Y,R1
000c45 92fa      	ST   -Y,R15
000c46 936a      	ST   -Y,R22
000c47 937a      	ST   -Y,R23
000c48 938a      	ST   -Y,R24
000c49 939a      	ST   -Y,R25
000c4a 93aa      	ST   -Y,R26
000c4b 93ba      	ST   -Y,R27
000c4c 93ea      	ST   -Y,R30
000c4d 93fa      	ST   -Y,R31
000c4e b7ef      	IN   R30,SREG
000c4f 93ea      	ST   -Y,R30
                 ; 0000 0012 
                 ; 0000 0013    time_loop++;
000c50 01f2      	MOVW R30,R4
000c51 9631      	ADIW R30,1
000c52 012f      	MOVW R4,R30
                 ; 0000 0014    if(time_loop >= 1000)
000c53 eee8      	LDI  R30,LOW(1000)
000c54 e0f3      	LDI  R31,HIGH(1000)
000c55 164e      	CP   R4,R30
000c56 065f      	CPC  R5,R31
000c57 f07c      	BRLT _0xBA
                 ; 0000 0015     {
                 ; 0000 0016         glcd_dis();
000c58 df19      	RCALL _glcd_dis
                 ; 0000 0017         if (key6_flag == 0)sec++;
000c59 91e0 0500 	LDS  R30,_key6_flag
000c5b 30e0      	CPI  R30,0
000c5c f429      	BRNE _0xBB
000c5d 91e0 053b 	LDS  R30,_sec
000c5f 5fef      	SUBI R30,-LOW(1)
000c60 93e0 053b 	STS  _sec,R30
                 ; 0000 0018         led_flag = ~led_flag;
                 _0xBB:
000c62 9480      	COM  R8
000c63 9490      	COM  R9
                 ; 0000 0019         time_loop = 0;
000c64 2444      	CLR  R4
000c65 2455      	CLR  R5
                 ; 0000 001A         Counter_add();
000c66 dcb3      	RCALL _Counter_add
                 ; 0000 001B     }
                 ; 0000 001C 
                 ; 0000 001D 
                 ; 0000 001E 
                 ; 0000 001F   TCNT0 = 18;
                 _0xBA:
000c67 e1e2      	LDI  R30,LOW(18)
000c68 bfe2      	OUT  0x32,R30
                 ; 0000 0020 }
                 _0xFA:
000c69 91e9      	LD   R30,Y+
000c6a bfef      	OUT  SREG,R30
000c6b 91f9      	LD   R31,Y+
000c6c 91e9      	LD   R30,Y+
000c6d 91b9      	LD   R27,Y+
000c6e 91a9      	LD   R26,Y+
000c6f 9199      	LD   R25,Y+
000c70 9189      	LD   R24,Y+
000c71 9179      	LD   R23,Y+
000c72 9169      	LD   R22,Y+
000c73 90f9      	LD   R15,Y+
000c74 9019      	LD   R1,Y+
000c75 9009      	LD   R0,Y+
000c76 9518      	RETI
                 ; .FEND
                 ;
                 ;void main(void)
                 ; 0000 0023 {
                 _main:
                 ; .FSTART _main
                 ; 0000 0024     TCCR0 = 0x03;
000c77 e0e3      	LDI  R30,LOW(3)
000c78 bfe3      	OUT  0x33,R30
                 ; 0000 0025     TCNT0 = 128;
000c79 e8e0      	LDI  R30,LOW(128)
000c7a bfe2      	OUT  0x32,R30
                 ; 0000 0026     TIMSK = 01;
000c7b e0e1      	LDI  R30,LOW(1)
000c7c bfe7      	OUT  0x37,R30
                 ; 0000 0027     EICRB = 0xaa;
000c7d eaea      	LDI  R30,LOW(170)
000c7e bfea      	OUT  0x3A,R30
                 ; 0000 0028     EIMSK = 0xf0;
000c7f efe0      	LDI  R30,LOW(240)
000c80 bfe9      	OUT  0x39,R30
                 ; 0000 0029     DDRD = 0xff;
000c81 efef      	LDI  R30,LOW(255)
000c82 bbe1      	OUT  0x11,R30
                 ; 0000 002A     DDRE = 0x0f;
000c83 e0ef      	LDI  R30,LOW(15)
000c84 b9e2      	OUT  0x2,R30
                 ; 0000 002B     DDRC = 0xff;
000c85 efef      	LDI  R30,LOW(255)
000c86 bbe4      	OUT  0x14,R30
                 ; 0000 002C     DDRF = 0xff;
000c87 93e0 0061 	STS  97,R30
                 ; 0000 002D     SREG = 0x80;
000c89 e8e0      	LDI  R30,LOW(128)
000c8a bfef      	OUT  0x3F,R30
                 ; 0000 002E     PORTA.6 = 1;
000c8b 9ade      	SBI  0x1B,6
                 ; 0000 002F     uart0_init();
000c8c dce7      	RCALL _uart0_init
                 ; 0000 0030     Counter_add();
000c8d dc8c      	RCALL _Counter_add
                 ; 0000 0031     func_init();
000c8e de51      	RCALL _func_init
                 ; 0000 0032 
                 ; 0000 0033 
                 ; 0000 0034 while (1)
                 _0xBE:
                 ; 0000 0035       {
                 ; 0000 0036 
                 ; 0000 0037           delay_ms(1);
000c8f e0a1      	LDI  R26,LOW(1)
000c90 e0b0      	LDI  R27,0
000c91 940e 10f0 	CALL _delay_ms
                 ; 0000 0038           lcd_loop++;
000c93 e3a9      	LDI  R26,LOW(_lcd_loop)
000c94 e0b5      	LDI  R27,HIGH(_lcd_loop)
000c95 940e 109c 	CALL SUBOPT_0x27
                 ; 0000 0039           if(cnt1 > 60)fnd_dis((cnt1 - 60), 0x04, 0x08);
000c97 91a0 0502 	LDS  R26,_cnt1
000c99 33ad      	CPI  R26,LOW(0x3D)
000c9a f040      	BRLO _0xC1
000c9b 91e0 0502 	LDS  R30,_cnt1
000c9d 53ec      	SUBI R30,LOW(60)
000c9e 93ea      	ST   -Y,R30
000c9f e0e4      	LDI  R30,LOW(4)
000ca0 93ea      	ST   -Y,R30
000ca1 e0a8      	LDI  R26,LOW(8)
000ca2 c01d      	RJMP _0xF9
                 ; 0000 003A           else if(cnt1 > 0)fnd_dis(cnt1, 0x10, 0x20);
                 _0xC1:
000ca3 91a0 0502 	LDS  R26,_cnt1
000ca5 30a1      	CPI  R26,LOW(0x1)
000ca6 f038      	BRLO _0xC3
000ca7 91e0 0502 	LDS  R30,_cnt1
000ca9 93ea      	ST   -Y,R30
000caa e1e0      	LDI  R30,LOW(16)
000cab 93ea      	ST   -Y,R30
000cac e2a0      	LDI  R26,LOW(32)
000cad c012      	RJMP _0xF9
                 ; 0000 003B           else if(cnt2 > 60)fnd_dis((cnt2 - 60), 0x40, 0x80);
                 _0xC3:
000cae 91a0 0503 	LDS  R26,_cnt2
000cb0 33ad      	CPI  R26,LOW(0x3D)
000cb1 f040      	BRLO _0xC5
000cb2 91e0 0503 	LDS  R30,_cnt2
000cb4 53ec      	SUBI R30,LOW(60)
000cb5 93ea      	ST   -Y,R30
000cb6 e4e0      	LDI  R30,LOW(64)
000cb7 93ea      	ST   -Y,R30
000cb8 e8a0      	LDI  R26,LOW(128)
000cb9 c006      	RJMP _0xF9
                 ; 0000 003C           else fnd_dis(cnt2, 0x01, 02);
                 _0xC5:
000cba 91e0 0503 	LDS  R30,_cnt2
000cbc 93ea      	ST   -Y,R30
000cbd e0e1      	LDI  R30,LOW(1)
000cbe 93ea      	ST   -Y,R30
000cbf e0a2      	LDI  R26,LOW(2)
                 _0xF9:
000cc0 dcc0      	RCALL _fnd_dis
                 ; 0000 003D 
                 ; 0000 003E           if(key4_flag == 1){
000cc1 e0e1      	LDI  R30,LOW(1)
000cc2 15ed      	CP   R30,R13
000cc3 f5b9      	BRNE _0xC7
                 ; 0000 003F             key4_flag = 0;
000cc4 24dd      	CLR  R13
                 ; 0000 0040             if(key6_flag == 1){
000cc5 91a0 0500 	LDS  R26,_key6_flag
000cc7 30a1      	CPI  R26,LOW(0x1)
000cc8 f531      	BRNE _0xC8
                 ; 0000 0041                 switch(time_count)
000cc9 01f5      	MOVW R30,R10
                 ; 0000 0042                 {
                 ; 0000 0043                     case 0:
000cca 9730      	SBIW R30,0
000ccb f439      	BRNE _0xCC
                 ; 0000 0044                         hour++;
000ccc 940e 10a2 	CALL SUBOPT_0x28
                 ; 0000 0045                         if(hour == 24)hour = 0;
000cce f419      	BRNE _0xCD
000ccf e0e0      	LDI  R30,LOW(0)
000cd0 93e0 053d 	STS  _hour,R30
                 ; 0000 0046                     break;
                 _0xCD:
000cd2 c01b      	RJMP _0xCB
                 ; 0000 0047 
                 ; 0000 0048                     case 1:
                 _0xCC:
000cd3 30e1      	CPI  R30,LOW(0x1)
000cd4 e0a0      	LDI  R26,HIGH(0x1)
000cd5 07fa      	CPC  R31,R26
000cd6 f439      	BRNE _0xCE
                 ; 0000 0049                         min++;
000cd7 940e 10ab 	CALL SUBOPT_0x29
                 ; 0000 004A                         if(min == 60)min = 0;
000cd9 f419      	BRNE _0xCF
000cda e0e0      	LDI  R30,LOW(0)
000cdb 93e0 053c 	STS  _min,R30
                 ; 0000 004B                     break;
                 _0xCF:
000cdd c010      	RJMP _0xCB
                 ; 0000 004C 
                 ; 0000 004D                     case 2:
                 _0xCE:
000cde 30e2      	CPI  R30,LOW(0x2)
000cdf e0a0      	LDI  R26,HIGH(0x2)
000ce0 07fa      	CPC  R31,R26
000ce1 f461      	BRNE _0xCB
                 ; 0000 004E                         sec++;
000ce2 91e0 053b 	LDS  R30,_sec
000ce4 5fef      	SUBI R30,-LOW(1)
000ce5 93e0 053b 	STS  _sec,R30
                 ; 0000 004F                         if(sec == 60)sec = 0;
000ce7 91a0 053b 	LDS  R26,_sec
000ce9 33ac      	CPI  R26,LOW(0x3C)
000cea f419      	BRNE _0xD1
000ceb e0e0      	LDI  R30,LOW(0)
000cec 93e0 053b 	STS  _sec,R30
                 ; 0000 0050                     break;
                 _0xD1:
                 ; 0000 0051                 }
                 _0xCB:
                 ; 0000 0052             }
                 ; 0000 0053             else{
000cee c00c      	RJMP _0xD2
                 _0xC8:
                 ; 0000 0054                 load++;
000cef 91e0 053e 	LDS  R30,_load
000cf1 5fef      	SUBI R30,-LOW(1)
000cf2 93e0 053e 	STS  _load,R30
                 ; 0000 0055                 if(load == 5) load = 1;
000cf4 91a0 053e 	LDS  R26,_load
000cf6 30a5      	CPI  R26,LOW(0x5)
000cf7 f419      	BRNE _0xD3
000cf8 e0e1      	LDI  R30,LOW(1)
000cf9 93e0 053e 	STS  _load,R30
                 ; 0000 0056             }
                 _0xD3:
                 _0xD2:
                 ; 0000 0057           }
                 ; 0000 0058 
                 ; 0000 0059           if(key5_flag == 1){
                 _0xC7:
000cfb e0e1      	LDI  R30,LOW(1)
000cfc 15ec      	CP   R30,R12
000cfd f009      	BREQ PC+2
000cfe c067      	RJMP _0xD4
                 ; 0000 005A             key5_flag = 0;
000cff 24cc      	CLR  R12
                 ; 0000 005B             if(key6_flag == 1){
000d00 91a0 0500 	LDS  R26,_key6_flag
000d02 30a1      	CPI  R26,LOW(0x1)
000d03 f591      	BRNE _0xD5
                 ; 0000 005C                 switch(time_count)
000d04 01f5      	MOVW R30,R10
                 ; 0000 005D                 {
                 ; 0000 005E                     case 0:
000d05 9730      	SBIW R30,0
000d06 f469      	BRNE _0xD9
                 ; 0000 005F                         hour--;
000d07 91e0 053d 	LDS  R30,_hour
000d09 50e1      	SUBI R30,LOW(1)
000d0a 93e0 053d 	STS  _hour,R30
                 ; 0000 0060                         if(hour == 24)hour = 0;
000d0c 91a0 053d 	LDS  R26,_hour
000d0e 31a8      	CPI  R26,LOW(0x18)
000d0f f419      	BRNE _0xDA
000d10 e0e0      	LDI  R30,LOW(0)
000d11 93e0 053d 	STS  _hour,R30
                 ; 0000 0061                     break;
                 _0xDA:
000d13 c021      	RJMP _0xD8
                 ; 0000 0062 
                 ; 0000 0063                     case 1:
                 _0xD9:
000d14 30e1      	CPI  R30,LOW(0x1)
000d15 e0a0      	LDI  R26,HIGH(0x1)
000d16 07fa      	CPC  R31,R26
000d17 f469      	BRNE _0xDB
                 ; 0000 0064                         min--;
000d18 91e0 053c 	LDS  R30,_min
000d1a 50e1      	SUBI R30,LOW(1)
000d1b 93e0 053c 	STS  _min,R30
                 ; 0000 0065                         if(min == 60)min = 0;
000d1d 91a0 053c 	LDS  R26,_min
000d1f 33ac      	CPI  R26,LOW(0x3C)
000d20 f419      	BRNE _0xDC
000d21 e0e0      	LDI  R30,LOW(0)
000d22 93e0 053c 	STS  _min,R30
                 ; 0000 0066                     break;
                 _0xDC:
000d24 c010      	RJMP _0xD8
                 ; 0000 0067 
                 ; 0000 0068                     case 2:
                 _0xDB:
000d25 30e2      	CPI  R30,LOW(0x2)
000d26 e0a0      	LDI  R26,HIGH(0x2)
000d27 07fa      	CPC  R31,R26
000d28 f461      	BRNE _0xD8
                 ; 0000 0069                         sec--;
000d29 91e0 053b 	LDS  R30,_sec
000d2b 50e1      	SUBI R30,LOW(1)
000d2c 93e0 053b 	STS  _sec,R30
                 ; 0000 006A                         if(sec == 60)sec = 0;
000d2e 91a0 053b 	LDS  R26,_sec
000d30 33ac      	CPI  R26,LOW(0x3C)
000d31 f419      	BRNE _0xDE
000d32 e0e0      	LDI  R30,LOW(0)
000d33 93e0 053b 	STS  _sec,R30
                 ; 0000 006B                     break;
                 _0xDE:
                 ; 0000 006C                 }
                 _0xD8:
                 ; 0000 006D             }
                 ; 0000 006E             else{
000d35 c030      	RJMP _0xDF
                 _0xD5:
                 ; 0000 006F             led_count++;
000d36 01f3      	MOVW R30,R6
000d37 9631      	ADIW R30,1
000d38 013f      	MOVW R6,R30
                 ; 0000 0070                 if(led_count == 4) led_count =0;
000d39 e0e4      	LDI  R30,LOW(4)
000d3a e0f0      	LDI  R31,HIGH(4)
000d3b 15e6      	CP   R30,R6
000d3c 05f7      	CPC  R31,R7
000d3d f411      	BRNE _0xE0
000d3e 2466      	CLR  R6
000d3f 2477      	CLR  R7
                 ; 0000 0071                 if(led_count == 0){
                 _0xE0:
000d40 2c06      	MOV  R0,R6
000d41 2807      	OR   R0,R7
000d42 f419      	BRNE _0xE1
                 ; 0000 0072                     cnt1 = 120;
000d43 e7e8      	LDI  R30,LOW(120)
000d44 940e 10b4 	CALL SUBOPT_0x2A
                 ; 0000 0073                     cnt2 = 0;
                 ; 0000 0074                     Counter_add();
                 ; 0000 0075                 }
                 ; 0000 0076                 if(led_count == 1){
                 _0xE1:
000d46 e0e1      	LDI  R30,LOW(1)
000d47 e0f0      	LDI  R31,HIGH(1)
000d48 15e6      	CP   R30,R6
000d49 05f7      	CPC  R31,R7
000d4a f419      	BRNE _0xE2
                 ; 0000 0077                     cnt1 = 60;
000d4b e3ec      	LDI  R30,LOW(60)
000d4c 940e 10b4 	CALL SUBOPT_0x2A
                 ; 0000 0078                     cnt2 = 0;
                 ; 0000 0079                     Counter_add();
                 ; 0000 007A                 }
                 ; 0000 007B                 if(led_count == 2){
                 _0xE2:
000d4e e0e2      	LDI  R30,LOW(2)
000d4f e0f0      	LDI  R31,HIGH(2)
000d50 15e6      	CP   R30,R6
000d51 05f7      	CPC  R31,R7
000d52 f439      	BRNE _0xE3
                 ; 0000 007C                     cnt1 = 0;
000d53 e0e0      	LDI  R30,LOW(0)
000d54 93e0 0502 	STS  _cnt1,R30
                 ; 0000 007D                     cnt2 = 120;
000d56 e7e8      	LDI  R30,LOW(120)
000d57 93e0 0503 	STS  _cnt2,R30
                 ; 0000 007E                     Counter_add();
000d59 dbc0      	RCALL _Counter_add
                 ; 0000 007F                 }
                 ; 0000 0080                 if(led_count == 3){
                 _0xE3:
000d5a e0e3      	LDI  R30,LOW(3)
000d5b e0f0      	LDI  R31,HIGH(3)
000d5c 15e6      	CP   R30,R6
000d5d 05f7      	CPC  R31,R7
000d5e f439      	BRNE _0xE4
                 ; 0000 0081                     cnt1 = 0;
000d5f e0e0      	LDI  R30,LOW(0)
000d60 93e0 0502 	STS  _cnt1,R30
                 ; 0000 0082                     cnt2 = 60;
000d62 e3ec      	LDI  R30,LOW(60)
000d63 93e0 0503 	STS  _cnt2,R30
                 ; 0000 0083                     Counter_add();
000d65 dbb4      	RCALL _Counter_add
                 ; 0000 0084                 }
                 ; 0000 0085             }
                 _0xE4:
                 _0xDF:
                 ; 0000 0086 
                 ; 0000 0087            }
                 ; 0000 0088 
                 ; 0000 0089           if(key7_flag == 1){
                 _0xD4:
000d66 91a0 0501 	LDS  R26,_key7_flag
000d68 30a1      	CPI  R26,LOW(0x1)
000d69 f429      	BRNE _0xE5
                 ; 0000 008A             key7_flag = 0;
000d6a e0e0      	LDI  R30,LOW(0)
000d6b 93e0 0501 	STS  _key7_flag,R30
                 ; 0000 008B             key6_flag = 0;
000d6d 93e0 0500 	STS  _key6_flag,R30
                 ; 0000 008C           }
                 ; 0000 008D 
                 ; 0000 008E           if(sec >= 60){
                 _0xE5:
000d6f 91a0 053b 	LDS  R26,_sec
000d71 33ac      	CPI  R26,LOW(0x3C)
000d72 f078      	BRLO _0xE6
                 ; 0000 008F             sec = 0; min++;
000d73 e0e0      	LDI  R30,LOW(0)
000d74 93e0 053b 	STS  _sec,R30
000d76 940e 10ab 	CALL SUBOPT_0x29
                 ; 0000 0090             if(min >= 60){
000d78 f048      	BRLO _0xE7
                 ; 0000 0091                 min = 0; hour++;
000d79 e0e0      	LDI  R30,LOW(0)
000d7a 93e0 053c 	STS  _min,R30
000d7c 940e 10a2 	CALL SUBOPT_0x28
                 ; 0000 0092                 if(hour >= 24) hour = 0;
000d7e f018      	BRLO _0xE8
000d7f e0e0      	LDI  R30,LOW(0)
000d80 93e0 053d 	STS  _hour,R30
                 ; 0000 0093             }
                 _0xE8:
                 ; 0000 0094           }
                 _0xE7:
                 ; 0000 0095 
                 ; 0000 0096 
                 ; 0000 0097 
                 ; 0000 0098       }
                 _0xE6:
000d82 cf0c      	RJMP _0xBE
                 ; 0000 0099 }
                 _0xE9:
000d83 cfff      	RJMP _0xE9
                 ; .FEND
                 	#ifndef __SLEEP_DEFINED__
                 	#endif
                 
                 	.CSEG
                 _putchar:
                 ; .FSTART _putchar
000d84 93aa      	ST   -Y,R26
                 putchar0:
000d85 9b5d           sbis usr,udre
000d86 cffe           rjmp putchar0
000d87 81e8           ld   r30,y
000d88 b9ec           out  udr,r30
                 _0x2060004:
000d89 9621      	ADIW R28,1
000d8a 9508      	RET
                 ; .FEND
                 _put_usart_G100:
                 ; .FSTART _put_usart_G100
000d8b 93ba      	ST   -Y,R27
000d8c 93aa      	ST   -Y,R26
000d8d 81aa      	LDD  R26,Y+2
000d8e dff5      	RCALL _putchar
000d8f 81a8      	LD   R26,Y
000d90 81b9      	LDD  R27,Y+1
000d91 940e 109c 	CALL SUBOPT_0x27
                 _0x2060003:
000d93 9623      	ADIW R28,3
000d94 9508      	RET
                 ; .FEND
                 _put_buff_G100:
                 ; .FSTART _put_buff_G100
000d95 93ba      	ST   -Y,R27
000d96 93aa      	ST   -Y,R26
000d97 931a      	ST   -Y,R17
000d98 930a      	ST   -Y,R16
000d99 81aa      	LDD  R26,Y+2
000d9a 81bb      	LDD  R27,Y+2+1
000d9b 9612      	ADIW R26,2
000d9c 940e 1163 	CALL __GETW1P
000d9e 9730      	SBIW R30,0
000d9f f129      	BREQ _0x2000010
000da0 81aa      	LDD  R26,Y+2
000da1 81bb      	LDD  R27,Y+2+1
000da2 9614      	ADIW R26,4
000da3 940e 1163 	CALL __GETW1P
000da5 018f      	MOVW R16,R30
000da6 9730      	SBIW R30,0
000da7 f061      	BREQ _0x2000012
                +
000da8 3002     +CPI R16 , LOW ( 2 )
000da9 e0e0     +LDI R30 , HIGH ( 2 )
000daa 071e     +CPC R17 , R30
                 	__CPWRN 16,17,2
000dab f080      	BRLO _0x2000013
000dac 01f8      	MOVW R30,R16
000dad 9731      	SBIW R30,1
000dae 018f      	MOVW R16,R30
                +
000daf 81aa     +LDD R26 , Y + 2
000db0 81bb     +LDD R27 , Y + 2 + 1
000db1 9614     +ADIW R26 , 4
000db2 93ed     +ST X + , R30
000db3 93fc     +ST X , R31
                 	__PUTW1SNS 2,4
                 _0x2000012:
000db4 81aa      	LDD  R26,Y+2
000db5 81bb      	LDD  R27,Y+2+1
000db6 9612      	ADIW R26,2
000db7 940e 109c 	CALL SUBOPT_0x27
000db9 9731      	SBIW R30,1
000dba 81ac      	LDD  R26,Y+4
000dbb 83a0      	STD  Z+0,R26
                 _0x2000013:
000dbc 81aa      	LDD  R26,Y+2
000dbd 81bb      	LDD  R27,Y+2+1
000dbe 940e 1163 	CALL __GETW1P
000dc0 23ff      	TST  R31
000dc1 f012      	BRMI _0x2000014
000dc2 940e 109c 	CALL SUBOPT_0x27
                 _0x2000014:
000dc4 c006      	RJMP _0x2000015
                 _0x2000010:
000dc5 81aa      	LDD  R26,Y+2
000dc6 81bb      	LDD  R27,Y+2+1
000dc7 efef      	LDI  R30,LOW(65535)
000dc8 efff      	LDI  R31,HIGH(65535)
000dc9 93ed      	ST   X+,R30
000dca 93fc      	ST   X,R31
                 _0x2000015:
000dcb 8119      	LDD  R17,Y+1
000dcc 8108      	LDD  R16,Y+0
                 _0x2060002:
000dcd 9625      	ADIW R28,5
000dce 9508      	RET
                 ; .FEND
                 __print_G100:
                 ; .FSTART __print_G100
000dcf 93ba      	ST   -Y,R27
000dd0 93aa      	ST   -Y,R26
000dd1 9726      	SBIW R28,6
000dd2 940e 1170 	CALL __SAVELOCR6
000dd4 e010      	LDI  R17,0
000dd5 85ac      	LDD  R26,Y+12
000dd6 85bd      	LDD  R27,Y+12+1
000dd7 e0e0      	LDI  R30,LOW(0)
000dd8 e0f0      	LDI  R31,HIGH(0)
000dd9 93ed      	ST   X+,R30
000dda 93fc      	ST   X,R31
                 _0x2000016:
000ddb 89ea      	LDD  R30,Y+18
000ddc 89fb      	LDD  R31,Y+18+1
000ddd 9631      	ADIW R30,1
000dde 8bea      	STD  Y+18,R30
000ddf 8bfb      	STD  Y+18+1,R31
000de0 9731      	SBIW R30,1
000de1 91e4      	LPM  R30,Z
000de2 2f2e      	MOV  R18,R30
000de3 30e0      	CPI  R30,0
000de4 f409      	BRNE PC+2
000de5 c115      	RJMP _0x2000018
000de6 2fe1      	MOV  R30,R17
000de7 30e0      	CPI  R30,0
000de8 f439      	BRNE _0x200001C
000de9 3225      	CPI  R18,37
000dea f411      	BRNE _0x200001D
000deb e011      	LDI  R17,LOW(1)
000dec c002      	RJMP _0x200001E
                 _0x200001D:
000ded 940e 10bb 	CALL SUBOPT_0x2B
                 _0x200001E:
000def c10a      	RJMP _0x200001B
                 _0x200001C:
000df0 30e1      	CPI  R30,LOW(0x1)
000df1 f4a9      	BRNE _0x200001F
000df2 3225      	CPI  R18,37
000df3 f419      	BRNE _0x2000020
000df4 940e 10bb 	CALL SUBOPT_0x2B
000df6 c102      	RJMP _0x20000CC
                 _0x2000020:
000df7 e012      	LDI  R17,LOW(2)
000df8 e040      	LDI  R20,LOW(0)
000df9 e000      	LDI  R16,LOW(0)
000dfa 322d      	CPI  R18,45
000dfb f411      	BRNE _0x2000021
000dfc e001      	LDI  R16,LOW(1)
000dfd c0fc      	RJMP _0x200001B
                 _0x2000021:
000dfe 322b      	CPI  R18,43
000dff f411      	BRNE _0x2000022
000e00 e24b      	LDI  R20,LOW(43)
000e01 c0f8      	RJMP _0x200001B
                 _0x2000022:
000e02 3220      	CPI  R18,32
000e03 f411      	BRNE _0x2000023
000e04 e240      	LDI  R20,LOW(32)
000e05 c0f4      	RJMP _0x200001B
                 _0x2000023:
000e06 c002      	RJMP _0x2000024
                 _0x200001F:
000e07 30e2      	CPI  R30,LOW(0x2)
000e08 f439      	BRNE _0x2000025
                 _0x2000024:
000e09 e050      	LDI  R21,LOW(0)
000e0a e013      	LDI  R17,LOW(3)
000e0b 3320      	CPI  R18,48
000e0c f411      	BRNE _0x2000026
000e0d 6800      	ORI  R16,LOW(128)
000e0e c0eb      	RJMP _0x200001B
                 _0x2000026:
000e0f c003      	RJMP _0x2000027
                 _0x2000025:
000e10 30e3      	CPI  R30,LOW(0x3)
000e11 f009      	BREQ PC+2
000e12 c0e7      	RJMP _0x200001B
                 _0x2000027:
000e13 3320      	CPI  R18,48
000e14 f010      	BRLO _0x200002A
000e15 332a      	CPI  R18,58
000e16 f008      	BRLO _0x200002B
                 _0x200002A:
000e17 c007      	RJMP _0x2000029
                 _0x200002B:
000e18 e0aa      	LDI  R26,LOW(10)
000e19 9f5a      	MUL  R21,R26
000e1a 2d50      	MOV  R21,R0
000e1b 2fe2      	MOV  R30,R18
000e1c 53e0      	SUBI R30,LOW(48)
000e1d 0f5e      	ADD  R21,R30
000e1e c0db      	RJMP _0x200001B
                 _0x2000029:
000e1f 2fe2      	MOV  R30,R18
000e20 36e3      	CPI  R30,LOW(0x63)
000e21 f449      	BRNE _0x200002F
000e22 940e 10c2 	CALL SUBOPT_0x2C
000e24 89e8      	LDD  R30,Y+16
000e25 89f9      	LDD  R31,Y+16+1
000e26 81a4      	LDD  R26,Z+4
000e27 93aa      	ST   -Y,R26
000e28 940e 10c8 	CALL SUBOPT_0x2D
000e2a c0ce      	RJMP _0x2000030
                 _0x200002F:
000e2b 37e3      	CPI  R30,LOW(0x73)
000e2c f441      	BRNE _0x2000032
000e2d 940e 10c2 	CALL SUBOPT_0x2C
000e2f 940e 10ce 	CALL SUBOPT_0x2E
000e31 940e 0f50 	CALL _strlen
000e33 2f1e      	MOV  R17,R30
000e34 c00a      	RJMP _0x2000033
                 _0x2000032:
000e35 37e0      	CPI  R30,LOW(0x70)
000e36 f461      	BRNE _0x2000035
000e37 940e 10c2 	CALL SUBOPT_0x2C
000e39 940e 10ce 	CALL SUBOPT_0x2E
000e3b 940e 0f5c 	CALL _strlenf
000e3d 2f1e      	MOV  R17,R30
000e3e 6008      	ORI  R16,LOW(8)
                 _0x2000033:
000e3f 6002      	ORI  R16,LOW(2)
000e40 770f      	ANDI R16,LOW(127)
000e41 e030      	LDI  R19,LOW(0)
000e42 c034      	RJMP _0x2000036
                 _0x2000035:
000e43 36e4      	CPI  R30,LOW(0x64)
000e44 f011      	BREQ _0x2000039
000e45 36e9      	CPI  R30,LOW(0x69)
000e46 f411      	BRNE _0x200003A
                 _0x2000039:
000e47 6004      	ORI  R16,LOW(4)
000e48 c002      	RJMP _0x200003B
                 _0x200003A:
000e49 37e5      	CPI  R30,LOW(0x75)
000e4a f431      	BRNE _0x200003C
                 _0x200003B:
000e4b e8e0      	LDI  R30,LOW(_tbl10_G100*2)
000e4c e0fe      	LDI  R31,HIGH(_tbl10_G100*2)
000e4d 83ee      	STD  Y+6,R30
000e4e 83ff      	STD  Y+6+1,R31
000e4f e015      	LDI  R17,LOW(5)
000e50 c00c      	RJMP _0x200003D
                 _0x200003C:
000e51 35e8      	CPI  R30,LOW(0x58)
000e52 f411      	BRNE _0x200003F
000e53 6008      	ORI  R16,LOW(8)
000e54 c003      	RJMP _0x2000040
                 _0x200003F:
000e55 37e8      	CPI  R30,LOW(0x78)
000e56 f009      	BREQ PC+2
000e57 c0a1      	RJMP _0x2000071
                 _0x2000040:
000e58 e8ea      	LDI  R30,LOW(_tbl16_G100*2)
000e59 e0fe      	LDI  R31,HIGH(_tbl16_G100*2)
000e5a 83ee      	STD  Y+6,R30
000e5b 83ff      	STD  Y+6+1,R31
000e5c e014      	LDI  R17,LOW(4)
                 _0x200003D:
000e5d ff02      	SBRS R16,2
000e5e c014      	RJMP _0x2000042
000e5f 940e 10c2 	CALL SUBOPT_0x2C
000e61 940e 10d8 	CALL SUBOPT_0x2F
000e63 85ab      	LDD  R26,Y+11
000e64 23aa      	TST  R26
000e65 f43a      	BRPL _0x2000043
000e66 85ea      	LDD  R30,Y+10
000e67 85fb      	LDD  R31,Y+10+1
000e68 940e 10fe 	CALL __ANEGW1
000e6a 87ea      	STD  Y+10,R30
000e6b 87fb      	STD  Y+10+1,R31
000e6c e24d      	LDI  R20,LOW(45)
                 _0x2000043:
000e6d 3040      	CPI  R20,0
000e6e f011      	BREQ _0x2000044
000e6f 5f1f      	SUBI R17,-LOW(1)
000e70 c001      	RJMP _0x2000045
                 _0x2000044:
000e71 7f0b      	ANDI R16,LOW(251)
                 _0x2000045:
000e72 c004      	RJMP _0x2000046
                 _0x2000042:
000e73 940e 10c2 	CALL SUBOPT_0x2C
000e75 940e 10d8 	CALL SUBOPT_0x2F
                 _0x2000046:
                 _0x2000036:
000e77 fd00      	SBRC R16,0
000e78 c011      	RJMP _0x2000047
                 _0x2000048:
000e79 1715      	CP   R17,R21
000e7a f478      	BRSH _0x200004A
000e7b ff07      	SBRS R16,7
000e7c c008      	RJMP _0x200004B
000e7d ff02      	SBRS R16,2
000e7e c004      	RJMP _0x200004C
000e7f 7f0b      	ANDI R16,LOW(251)
000e80 2f24      	MOV  R18,R20
000e81 5011      	SUBI R17,LOW(1)
000e82 c001      	RJMP _0x200004D
                 _0x200004C:
000e83 e320      	LDI  R18,LOW(48)
                 _0x200004D:
000e84 c001      	RJMP _0x200004E
                 _0x200004B:
000e85 e220      	LDI  R18,LOW(32)
                 _0x200004E:
000e86 940e 10bb 	CALL SUBOPT_0x2B
000e88 5051      	SUBI R21,LOW(1)
000e89 cfef      	RJMP _0x2000048
                 _0x200004A:
                 _0x2000047:
000e8a 2f31      	MOV  R19,R17
000e8b ff01      	SBRS R16,1
000e8c c017      	RJMP _0x200004F
                 _0x2000050:
000e8d 3030      	CPI  R19,0
000e8e f0a1      	BREQ _0x2000052
000e8f ff03      	SBRS R16,3
000e90 c006      	RJMP _0x2000053
000e91 81ee      	LDD  R30,Y+6
000e92 81ff      	LDD  R31,Y+6+1
000e93 9125      	LPM  R18,Z+
000e94 83ee      	STD  Y+6,R30
000e95 83ff      	STD  Y+6+1,R31
000e96 c005      	RJMP _0x2000054
                 _0x2000053:
000e97 81ae      	LDD  R26,Y+6
000e98 81bf      	LDD  R27,Y+6+1
000e99 912d      	LD   R18,X+
000e9a 83ae      	STD  Y+6,R26
000e9b 83bf      	STD  Y+6+1,R27
                 _0x2000054:
000e9c 940e 10bb 	CALL SUBOPT_0x2B
000e9e 3050      	CPI  R21,0
000e9f f009      	BREQ _0x2000055
000ea0 5051      	SUBI R21,LOW(1)
                 _0x2000055:
000ea1 5031      	SUBI R19,LOW(1)
000ea2 cfea      	RJMP _0x2000050
                 _0x2000052:
000ea3 c04b      	RJMP _0x2000056
                 _0x200004F:
                 _0x2000058:
000ea4 e320      	LDI  R18,LOW(48)
000ea5 81ee      	LDD  R30,Y+6
000ea6 81ff      	LDD  R31,Y+6+1
000ea7 940e 1167 	CALL __GETW1PF
000ea9 87e8      	STD  Y+8,R30
000eaa 87f9      	STD  Y+8+1,R31
000eab 81ee      	LDD  R30,Y+6
000eac 81ff      	LDD  R31,Y+6+1
000ead 9632      	ADIW R30,2
000eae 83ee      	STD  Y+6,R30
000eaf 83ff      	STD  Y+6+1,R31
                 _0x200005A:
000eb0 85e8      	LDD  R30,Y+8
000eb1 85f9      	LDD  R31,Y+8+1
000eb2 85aa      	LDD  R26,Y+10
000eb3 85bb      	LDD  R27,Y+10+1
000eb4 17ae      	CP   R26,R30
000eb5 07bf      	CPC  R27,R31
000eb6 f050      	BRLO _0x200005C
000eb7 5f2f      	SUBI R18,-LOW(1)
000eb8 85a8      	LDD  R26,Y+8
000eb9 85b9      	LDD  R27,Y+8+1
000eba 85ea      	LDD  R30,Y+10
000ebb 85fb      	LDD  R31,Y+10+1
000ebc 1bea      	SUB  R30,R26
000ebd 0bfb      	SBC  R31,R27
000ebe 87ea      	STD  Y+10,R30
000ebf 87fb      	STD  Y+10+1,R31
000ec0 cfef      	RJMP _0x200005A
                 _0x200005C:
000ec1 332a      	CPI  R18,58
000ec2 f028      	BRLO _0x200005D
000ec3 ff03      	SBRS R16,3
000ec4 c002      	RJMP _0x200005E
000ec5 5f29      	SUBI R18,-LOW(7)
000ec6 c001      	RJMP _0x200005F
                 _0x200005E:
000ec7 5d29      	SUBI R18,-LOW(39)
                 _0x200005F:
                 _0x200005D:
000ec8 fd04      	SBRC R16,4
000ec9 c01a      	RJMP _0x2000061
000eca 3321      	CPI  R18,49
000ecb f420      	BRSH _0x2000063
000ecc 85a8      	LDD  R26,Y+8
000ecd 85b9      	LDD  R27,Y+8+1
000ece 9711      	SBIW R26,1
000ecf f409      	BRNE _0x2000062
                 _0x2000063:
000ed0 c009      	RJMP _0x20000CD
                 _0x2000062:
000ed1 1753      	CP   R21,R19
000ed2 f010      	BRLO _0x2000067
000ed3 ff00      	SBRS R16,0
000ed4 c001      	RJMP _0x2000068
                 _0x2000067:
000ed5 c013      	RJMP _0x2000066
                 _0x2000068:
000ed6 e220      	LDI  R18,LOW(32)
000ed7 ff07      	SBRS R16,7
000ed8 c00b      	RJMP _0x2000069
000ed9 e320      	LDI  R18,LOW(48)
                 _0x20000CD:
000eda 6100      	ORI  R16,LOW(16)
000edb ff02      	SBRS R16,2
000edc c007      	RJMP _0x200006A
000edd 7f0b      	ANDI R16,LOW(251)
000ede 934a      	ST   -Y,R20
000edf 940e 10c8 	CALL SUBOPT_0x2D
000ee1 3050      	CPI  R21,0
000ee2 f009      	BREQ _0x200006B
000ee3 5051      	SUBI R21,LOW(1)
                 _0x200006B:
                 _0x200006A:
                 _0x2000069:
                 _0x2000061:
000ee4 940e 10bb 	CALL SUBOPT_0x2B
000ee6 3050      	CPI  R21,0
000ee7 f009      	BREQ _0x200006C
000ee8 5051      	SUBI R21,LOW(1)
                 _0x200006C:
                 _0x2000066:
000ee9 5031      	SUBI R19,LOW(1)
000eea 85a8      	LDD  R26,Y+8
000eeb 85b9      	LDD  R27,Y+8+1
000eec 9712      	SBIW R26,2
000eed f008      	BRLO _0x2000059
000eee cfb5      	RJMP _0x2000058
                 _0x2000059:
                 _0x2000056:
000eef ff00      	SBRS R16,0
000ef0 c008      	RJMP _0x200006D
                 _0x200006E:
000ef1 3050      	CPI  R21,0
000ef2 f031      	BREQ _0x2000070
000ef3 5051      	SUBI R21,LOW(1)
000ef4 e2e0      	LDI  R30,LOW(32)
000ef5 93ea      	ST   -Y,R30
000ef6 940e 10c8 	CALL SUBOPT_0x2D
000ef8 cff8      	RJMP _0x200006E
                 _0x2000070:
                 _0x200006D:
                 _0x2000071:
                 _0x2000030:
                 _0x20000CC:
000ef9 e010      	LDI  R17,LOW(0)
                 _0x200001B:
000efa cee0      	RJMP _0x2000016
                 _0x2000018:
000efb 85ac      	LDD  R26,Y+12
000efc 85bd      	LDD  R27,Y+12+1
000efd 940e 1163 	CALL __GETW1P
000eff 940e 1177 	CALL __LOADLOCR6
000f01 9664      	ADIW R28,20
000f02 9508      	RET
                 ; .FEND
                 _sprintf:
                 ; .FSTART _sprintf
000f03 92ff      	PUSH R15
000f04 2ef8      	MOV  R15,R24
000f05 9726      	SBIW R28,6
000f06 940e 1172 	CALL __SAVELOCR4
000f08 940e 10e0 	CALL SUBOPT_0x30
000f0a 9730      	SBIW R30,0
000f0b f419      	BRNE _0x2000072
000f0c efef      	LDI  R30,LOW(65535)
000f0d efff      	LDI  R31,HIGH(65535)
000f0e c01d      	RJMP _0x2060001
                 _0x2000072:
000f0f 01de      	MOVW R26,R28
000f10 9616      	ADIW R26,6
000f11 940e 10fa 	CALL __ADDW2R15
000f13 018d      	MOVW R16,R26
000f14 940e 10e0 	CALL SUBOPT_0x30
000f16 83ee      	STD  Y+6,R30
000f17 83ff      	STD  Y+6+1,R31
000f18 e0e0      	LDI  R30,LOW(0)
000f19 87e8      	STD  Y+8,R30
000f1a 87e9      	STD  Y+8+1,R30
000f1b 01de      	MOVW R26,R28
000f1c 961a      	ADIW R26,10
000f1d 940e 10e7 	CALL SUBOPT_0x31
000f1f e9e5      	LDI  R30,LOW(_put_buff_G100)
000f20 e0fd      	LDI  R31,HIGH(_put_buff_G100)
000f21 93fa      	ST   -Y,R31
000f22 93ea      	ST   -Y,R30
000f23 01de      	MOVW R26,R28
000f24 961a      	ADIW R26,10
000f25 dea9      	RCALL __print_G100
000f26 019f      	MOVW R18,R30
000f27 81ae      	LDD  R26,Y+6
000f28 81bf      	LDD  R27,Y+6+1
000f29 e0e0      	LDI  R30,LOW(0)
000f2a 93ec      	ST   X,R30
000f2b 01f9      	MOVW R30,R18
                 _0x2060001:
000f2c 940e 1179 	CALL __LOADLOCR4
000f2e 962a      	ADIW R28,10
000f2f 90ff      	POP  R15
000f30 9508      	RET
                 ; .FEND
                 _printf:
                 ; .FSTART _printf
000f31 92ff      	PUSH R15
000f32 2ef8      	MOV  R15,R24
000f33 9726      	SBIW R28,6
000f34 931a      	ST   -Y,R17
000f35 930a      	ST   -Y,R16
000f36 01de      	MOVW R26,R28
000f37 9614      	ADIW R26,4
000f38 940e 10fa 	CALL __ADDW2R15
000f3a 018d      	MOVW R16,R26
000f3b e0e0      	LDI  R30,LOW(0)
000f3c 83ec      	STD  Y+4,R30
000f3d 83ed      	STD  Y+4+1,R30
000f3e 83ee      	STD  Y+6,R30
000f3f 83ef      	STD  Y+6+1,R30
000f40 01de      	MOVW R26,R28
000f41 9618      	ADIW R26,8
000f42 940e 10e7 	CALL SUBOPT_0x31
000f44 e8eb      	LDI  R30,LOW(_put_usart_G100)
000f45 e0fd      	LDI  R31,HIGH(_put_usart_G100)
000f46 93fa      	ST   -Y,R31
000f47 93ea      	ST   -Y,R30
000f48 01de      	MOVW R26,R28
000f49 9618      	ADIW R26,8
000f4a de84      	RCALL __print_G100
000f4b 8119      	LDD  R17,Y+1
000f4c 8108      	LDD  R16,Y+0
000f4d 9628      	ADIW R28,8
000f4e 90ff      	POP  R15
000f4f 9508      	RET
                 ; .FEND
                 
                 	.CSEG
                 
                 	.CSEG
                 _strlen:
                 ; .FSTART _strlen
000f50 93ba      	ST   -Y,R27
000f51 93aa      	ST   -Y,R26
000f52 91a9          ld   r26,y+
000f53 91b9          ld   r27,y+
000f54 27ee          clr  r30
000f55 27ff          clr  r31
                 strlen0:
000f56 916d          ld   r22,x+
000f57 2366          tst  r22
000f58 f011          breq strlen1
000f59 9631          adiw r30,1
000f5a cffb          rjmp strlen0
                 strlen1:
000f5b 9508          ret
                 ; .FEND
                 _strlenf:
                 ; .FSTART _strlenf
000f5c 93ba      	ST   -Y,R27
000f5d 93aa      	ST   -Y,R26
000f5e 27aa          clr  r26
000f5f 27bb          clr  r27
000f60 91e9          ld   r30,y+
000f61 91f9          ld   r31,y+
                 strlenf0:
000f62 9005      	lpm  r0,z+
000f63 2000          tst  r0
000f64 f011          breq strlenf1
000f65 9611          adiw r26,1
000f66 cffb          rjmp strlenf0
                 strlenf1:
000f67 01fd          movw r30,r26
000f68 9508          ret
                 ; .FEND
                 
                 	.DSEG
                 _key6_flag:
000500           	.BYTE 0x1
                 _key7_flag:
000501           	.BYTE 0x1
                 _cnt1:
000502           	.BYTE 0x1
                 _cnt2:
000503           	.BYTE 0x1
                 _led_dis1:
000504           	.BYTE 0xD
                 _led_dis2:
000511           	.BYTE 0xD
                 _led_add:
00051e           	.BYTE 0x14
                 _i:
000532           	.BYTE 0x2
                 _k:
000534           	.BYTE 0x2
                 _cnt:
000536           	.BYTE 0x2
                 _scan:
000538           	.BYTE 0x1
                 _lcd_loop:
000539           	.BYTE 0x2
                 _sec:
00053b           	.BYTE 0x1
                 _min:
00053c           	.BYTE 0x1
                 _hour:
00053d           	.BYTE 0x1
                 _load:
00053e           	.BYTE 0x1
                 _buf:
00053f           	.BYTE 0x3
                 
                 	.CSEG
                 ;OPTIMIZER ADDED SUBROUTINE, CALLED 3 TIMES, CODE SIZE REDUCTION:1 WORDS
                 SUBOPT_0x0:
000f69 91e0 0534 	LDS  R30,_k
000f6b 91f0 0535 	LDS  R31,_k+1
000f6d 9508      	RET
                 
                 ;OPTIMIZER ADDED SUBROUTINE, CALLED 2 TIMES, CODE SIZE REDUCTION:2 WORDS
                 SUBOPT_0x1:
000f6e e3a4      	LDI  R26,LOW(_k)
000f6f e0b5      	LDI  R27,HIGH(_k)
000f70 91ed      	LD   R30,X+
000f71 91fd      	LD   R31,X+
000f72 9631      	ADIW R30,1
000f73 93fe      	ST   -X,R31
000f74 93ee      	ST   -X,R30
000f75 9508      	RET
                 
                 ;OPTIMIZER ADDED SUBROUTINE, CALLED 3 TIMES, CODE SIZE REDUCTION:1 WORDS
                 SUBOPT_0x2:
000f76 e0e1      	LDI  R30,LOW(1)
                +
000f77 93e0 050a+STS _led_dis1 + ( 6 ) , R30
                 	__PUTB1MN _led_dis1,6
000f79 9508      	RET
                 
                 ;OPTIMIZER ADDED SUBROUTINE, CALLED 3 TIMES, CODE SIZE REDUCTION:1 WORDS
                 SUBOPT_0x3:
000f7a e0e1      	LDI  R30,LOW(1)
                +
000f7b 93e0 0512+STS _led_dis2 + ( 1 ) , R30
                 	__PUTB1MN _led_dis2,1
000f7d 9508      	RET
                 
                 ;OPTIMIZER ADDED SUBROUTINE, CALLED 2 TIMES, CODE SIZE REDUCTION:1 WORDS
                 SUBOPT_0x4:
                +
000f7e 93e0 0517+STS _led_dis2 + ( 6 ) , R30
                 	__PUTB1MN _led_dis2,6
000f80 e0e1      	LDI  R30,LOW(1)
                +
000f81 93e0 0518+STS _led_dis2 + ( 7 ) , R30
                 	__PUTB1MN _led_dis2,7
000f83 9508      	RET
                 
                 ;OPTIMIZER ADDED SUBROUTINE, CALLED 7 TIMES, CODE SIZE REDUCTION:9 WORDS
                 SUBOPT_0x5:
000f84 91a0 0532 	LDS  R26,_i
000f86 91b0 0533 	LDS  R27,_i+1
000f88 9508      	RET
                 
                 ;OPTIMIZER ADDED SUBROUTINE, CALLED 3 TIMES, CODE SIZE REDUCTION:1 WORDS
                 SUBOPT_0x6:
000f89 0fee      	LSL  R30
000f8a 1fff      	ROL  R31
000f8b 0fae      	ADD  R26,R30
000f8c 1fbf      	ADC  R27,R31
000f8d 9508      	RET
                 
                 ;OPTIMIZER ADDED SUBROUTINE, CALLED 4 TIMES, CODE SIZE REDUCTION:12 WORDS
                 SUBOPT_0x7:
000f8e e3a2      	LDI  R26,LOW(_i)
000f8f e0b5      	LDI  R27,HIGH(_i)
000f90 91ed      	LD   R30,X+
000f91 91fd      	LD   R31,X+
000f92 9631      	ADIW R30,1
000f93 93fe      	ST   -X,R31
000f94 93ee      	ST   -X,R30
000f95 9508      	RET
                 
                 ;OPTIMIZER ADDED SUBROUTINE, CALLED 2 TIMES, CODE SIZE REDUCTION:1 WORDS
                 SUBOPT_0x8:
000f96 e0e1      	LDI  R30,LOW(1)
000f97 e0f0      	LDI  R31,HIGH(1)
000f98 93e0 0532 	STS  _i,R30
000f9a 93f0 0533 	STS  _i+1,R31
000f9c 9508      	RET
                 
                 ;OPTIMIZER ADDED SUBROUTINE, CALLED 5 TIMES, CODE SIZE REDUCTION:5 WORDS
                 SUBOPT_0x9:
000f9d 91e0 0532 	LDS  R30,_i
000f9f 91f0 0533 	LDS  R31,_i+1
000fa1 9508      	RET
                 
                 ;OPTIMIZER ADDED SUBROUTINE, CALLED 2 TIMES, CODE SIZE REDUCTION:10 WORDS
                 SUBOPT_0xA:
000fa2 0fee      	LSL  R30
000fa3 1fff      	ROL  R31
000fa4 0fea      	ADD  R30,R26
000fa5 1ffb      	ADC  R31,R27
000fa6 dfdd      	RCALL SUBOPT_0x5
000fa7 83a0      	STD  Z+0,R26
000fa8 83b1      	STD  Z+1,R27
000fa9 e3a6      	LDI  R26,LOW(_cnt)
000faa e0b5      	LDI  R27,HIGH(_cnt)
000fab 91ed      	LD   R30,X+
000fac 91fd      	LD   R31,X+
000fad 9631      	ADIW R30,1
000fae 93fe      	ST   -X,R31
000faf 93ee      	ST   -X,R30
000fb0 9508      	RET
                 
                 ;OPTIMIZER ADDED SUBROUTINE, CALLED 2 TIMES, CODE SIZE REDUCTION:11 WORDS
                 SUBOPT_0xB:
000fb1 940e 1102 	CALL __CWD1
000fb3 940e 116b 	CALL __PUTPARD1
000fb5 e084      	LDI  R24,4
000fb6 940e 0f31 	CALL _printf
000fb8 9626      	ADIW R28,6
                +
000fb9 eaee     +LDI R30 , LOW ( 2 * _0x0 + ( 14 ) )
000fba e0fe     +LDI R31 , HIGH ( 2 * _0x0 + ( 14 ) )
                 	__POINTW1FN _0x0,14
000fbb 93fa      	ST   -Y,R31
000fbc 93ea      	ST   -Y,R30
000fbd e080      	LDI  R24,0
000fbe 940e 0f31 	CALL _printf
000fc0 9622      	ADIW R28,2
000fc1 9508      	RET
                 
                 ;OPTIMIZER ADDED SUBROUTINE, CALLED 4 TIMES, CODE SIZE REDUCTION:9 WORDS
                 SUBOPT_0xC:
000fc2 27ff      	CLR  R31
000fc3 2766      	CLR  R22
000fc4 2777      	CLR  R23
000fc5 940e 116b 	CALL __PUTPARD1
000fc7 e084      	LDI  R24,4
000fc8 9508      	RET
                 
                 ;OPTIMIZER ADDED SUBROUTINE, CALLED 4 TIMES, CODE SIZE REDUCTION:33 WORDS
                 SUBOPT_0xD:
000fc9 920a      	ST   -Y,R0
000fca 921a      	ST   -Y,R1
000fcb 92fa      	ST   -Y,R15
000fcc 936a      	ST   -Y,R22
000fcd 937a      	ST   -Y,R23
000fce 938a      	ST   -Y,R24
000fcf 939a      	ST   -Y,R25
000fd0 93aa      	ST   -Y,R26
000fd1 93ba      	ST   -Y,R27
000fd2 93ea      	ST   -Y,R30
000fd3 93fa      	ST   -Y,R31
000fd4 b7ef      	IN   R30,SREG
000fd5 93ea      	ST   -Y,R30
000fd6 b7e9      	IN   R30,0x39
000fd7 9508      	RET
                 
                 ;OPTIMIZER ADDED SUBROUTINE, CALLED 4 TIMES, CODE SIZE REDUCTION:3 WORDS
                 SUBOPT_0xE:
000fd8 e0a5      	LDI  R26,LOW(5)
000fd9 e0b0      	LDI  R27,0
000fda 940c 10f0 	JMP  _delay_ms
                 
                 ;OPTIMIZER ADDED SUBROUTINE, CALLED 4 TIMES, CODE SIZE REDUCTION:3 WORDS
                 SUBOPT_0xF:
000fdc e0a2      	LDI  R26,LOW(2)
000fdd e0b0      	LDI  R27,0
000fde 940c 10f0 	JMP  _delay_ms
                 
                 ;OPTIMIZER ADDED SUBROUTINE, CALLED 2 TIMES, CODE SIZE REDUCTION:3 WORDS
                 SUBOPT_0x10:
000fe0 931a      	ST   -Y,R17
000fe1 e0e7      	LDI  R30,LOW(7)
000fe2 1be0      	SUB  R30,R16
000fe3 2fae      	MOV  R26,R30
000fe4 940e 0ac3 	CALL _lcd_gotoxy
000fe6 81ac      	LDD  R26,Y+4
000fe7 30a1      	CPI  R26,LOW(0x1)
000fe8 9508      	RET
                 
                 ;OPTIMIZER ADDED SUBROUTINE, CALLED 3 TIMES, CODE SIZE REDUCTION:9 WORDS
                 SUBOPT_0x11:
000fe9 e3ef      	LDI  R30,LOW(_buf)
000fea e0f5      	LDI  R31,HIGH(_buf)
000feb 93fa      	ST   -Y,R31
000fec 93ea      	ST   -Y,R30
                +
000fed ebec     +LDI R30 , LOW ( 2 * _0x0 + ( 28 ) )
000fee e0fe     +LDI R31 , HIGH ( 2 * _0x0 + ( 28 ) )
                 	__POINTW1FN _0x0,28
000fef 93fa      	ST   -Y,R31
000ff0 93ea      	ST   -Y,R30
000ff1 9508      	RET
                 
                 ;OPTIMIZER ADDED SUBROUTINE, CALLED 3 TIMES, CODE SIZE REDUCTION:5 WORDS
                 SUBOPT_0x12:
000ff2 940e 0f03 	CALL _sprintf
000ff4 9628      	ADIW R28,8
000ff5 91a0 0500 	LDS  R26,_key6_flag
000ff7 30a1      	CPI  R26,LOW(0x1)
000ff8 9508      	RET
                 
                 ;OPTIMIZER ADDED SUBROUTINE, CALLED 3 TIMES, CODE SIZE REDUCTION:7 WORDS
                 SUBOPT_0x13:
000ff9 01d4      	MOVW R26,R8
000ffa e0e0      	LDI  R30,LOW(0)
000ffb e0f0      	LDI  R31,HIGH(0)
000ffc 940e 111b 	CALL __EQW12
000ffe 2e0e      	MOV  R0,R30
000fff 01d5      	MOVW R26,R10
001000 9508      	RET
                 
                 ;OPTIMIZER ADDED SUBROUTINE, CALLED 3 TIMES, CODE SIZE REDUCTION:1 WORDS
                 SUBOPT_0x14:
001001 e0ec      	LDI  R30,LOW(12)
001002 93ea      	ST   -Y,R30
001003 e0e0      	LDI  R30,LOW(0)
001004 93ea      	ST   -Y,R30
001005 9508      	RET
                 
                 ;OPTIMIZER ADDED SUBROUTINE, CALLED 3 TIMES, CODE SIZE REDUCTION:5 WORDS
                 SUBOPT_0x15:
001006 940e 0a86 	CALL _Write_Char
001008 e0ed      	LDI  R30,LOW(13)
001009 93ea      	ST   -Y,R30
00100a e0e0      	LDI  R30,LOW(0)
00100b 93ea      	ST   -Y,R30
00100c 9508      	RET
                 
                 ;OPTIMIZER ADDED SUBROUTINE, CALLED 2 TIMES, CODE SIZE REDUCTION:2 WORDS
                 SUBOPT_0x16:
00100d e0ee      	LDI  R30,LOW(14)
00100e 93ea      	ST   -Y,R30
00100f e0e0      	LDI  R30,LOW(0)
001010 93ea      	ST   -Y,R30
001011 e3aa      	LDI  R26,LOW(58)
001012 940c 0a86 	JMP  _Write_Char
                 
                 ;OPTIMIZER ADDED SUBROUTINE, CALLED 3 TIMES, CODE SIZE REDUCTION:1 WORDS
                 SUBOPT_0x17:
                +
001014 91a0 0540+LDS R26 , _buf + ( 1 )
                 	__GETB2MN _buf,1
001016 940c 0a86 	JMP  _Write_Char
                 
                 ;OPTIMIZER ADDED SUBROUTINE, CALLED 3 TIMES, CODE SIZE REDUCTION:1 WORDS
                 SUBOPT_0x18:
001018 e0ef      	LDI  R30,LOW(15)
001019 93ea      	ST   -Y,R30
00101a e0e0      	LDI  R30,LOW(0)
00101b 93ea      	ST   -Y,R30
00101c 9508      	RET
                 
                 ;OPTIMIZER ADDED SUBROUTINE, CALLED 3 TIMES, CODE SIZE REDUCTION:5 WORDS
                 SUBOPT_0x19:
00101d 940e 0a86 	CALL _Write_Char
00101f e1e0      	LDI  R30,LOW(16)
001020 93ea      	ST   -Y,R30
001021 e0e0      	LDI  R30,LOW(0)
001022 93ea      	ST   -Y,R30
001023 9508      	RET
                 
                 ;OPTIMIZER ADDED SUBROUTINE, CALLED 2 TIMES, CODE SIZE REDUCTION:2 WORDS
                 SUBOPT_0x1A:
001024 e1e1      	LDI  R30,LOW(17)
001025 93ea      	ST   -Y,R30
001026 e0e0      	LDI  R30,LOW(0)
001027 93ea      	ST   -Y,R30
001028 e3aa      	LDI  R26,LOW(58)
001029 940c 0a86 	JMP  _Write_Char
                 
                 ;OPTIMIZER ADDED SUBROUTINE, CALLED 3 TIMES, CODE SIZE REDUCTION:1 WORDS
                 SUBOPT_0x1B:
00102b e1e2      	LDI  R30,LOW(18)
00102c 93ea      	ST   -Y,R30
00102d e0e0      	LDI  R30,LOW(0)
00102e 93ea      	ST   -Y,R30
00102f 9508      	RET
                 
                 ;OPTIMIZER ADDED SUBROUTINE, CALLED 3 TIMES, CODE SIZE REDUCTION:5 WORDS
                 SUBOPT_0x1C:
001030 940e 0a86 	CALL _Write_Char
001032 e1e3      	LDI  R30,LOW(19)
001033 93ea      	ST   -Y,R30
001034 e0e0      	LDI  R30,LOW(0)
001035 93ea      	ST   -Y,R30
001036 9508      	RET
                 
                 ;OPTIMIZER ADDED SUBROUTINE, CALLED 3 TIMES, CODE SIZE REDUCTION:17 WORDS
                 SUBOPT_0x1D:
001037 91a0 053d 	LDS  R26,_hour
001039 e0e9      	LDI  R30,LOW(9)
00103a 940e 110c 	CALL __GEB12U
00103c 2e0e      	MOV  R0,R30
00103d e1e2      	LDI  R30,LOW(18)
00103e 940e 1107 	CALL __LEB12U
001040 21e0      	AND  R30,R0
001041 9508      	RET
                 
                 ;OPTIMIZER ADDED SUBROUTINE, CALLED 3 TIMES, CODE SIZE REDUCTION:17 WORDS
                 SUBOPT_0x1E:
001042 91a0 053d 	LDS  R26,_hour
001044 e0ec      	LDI  R30,LOW(12)
001045 940e 110c 	CALL __GEB12U
001047 2e0e      	MOV  R0,R30
001048 e0ee      	LDI  R30,LOW(14)
001049 940e 1107 	CALL __LEB12U
00104b 21e0      	AND  R30,R0
00104c 9508      	RET
                 
                 ;OPTIMIZER ADDED SUBROUTINE, CALLED 2 TIMES, CODE SIZE REDUCTION:21 WORDS
                 SUBOPT_0x1F:
00104d 91a0 053d 	LDS  R26,_hour
00104f e0e8      	LDI  R30,LOW(8)
001050 940e 110c 	CALL __GEB12U
001052 2e0e      	MOV  R0,R30
001053 e0e9      	LDI  R30,LOW(9)
001054 940e 1111 	CALL __LTB12U
001056 21e0      	AND  R30,R0
001057 2e1e      	MOV  R1,R30
001058 e1e2      	LDI  R30,LOW(18)
001059 940e 1116 	CALL __GTB12U
00105b 2e0e      	MOV  R0,R30
00105c e1e4      	LDI  R30,LOW(20)
00105d 940e 1107 	CALL __LEB12U
00105f 21e0      	AND  R30,R0
001060 29e1      	OR   R30,R1
001061 9508      	RET
                 
                 ;OPTIMIZER ADDED SUBROUTINE, CALLED 4 TIMES, CODE SIZE REDUCTION:9 WORDS
                 SUBOPT_0x20:
001062 940e 0aeb 	CALL _disp
001064 e0ea      	LDI  R30,LOW(10)
001065 93ea      	ST   -Y,R30
001066 e0e1      	LDI  R30,LOW(1)
001067 93ea      	ST   -Y,R30
001068 9508      	RET
                 
                 ;OPTIMIZER ADDED SUBROUTINE, CALLED 12 TIMES, CODE SIZE REDUCTION:19 WORDS
                 SUBOPT_0x21:
001069 940e 0a6b 	CALL _Write_String_6x8
00106b e0ea      	LDI  R30,LOW(10)
00106c 93ea      	ST   -Y,R30
00106d 9508      	RET
                 
                 ;OPTIMIZER ADDED SUBROUTINE, CALLED 4 TIMES, CODE SIZE REDUCTION:21 WORDS
                 SUBOPT_0x22:
00106e e0e2      	LDI  R30,LOW(2)
00106f 93ea      	ST   -Y,R30
                +
001070 eda2     +LDI R26 , LOW ( 2 * _0x0 + ( 50 ) )
001071 e0be     +LDI R27 , HIGH ( 2 * _0x0 + ( 50 ) )
                 	__POINTW2FN _0x0,50
001072 940e 0a6b 	CALL _Write_String_6x8
001074 e0e9      	LDI  R30,LOW(9)
001075 93ea      	ST   -Y,R30
001076 e0e4      	LDI  R30,LOW(4)
001077 93ea      	ST   -Y,R30
001078 9508      	RET
                 
                 ;OPTIMIZER ADDED SUBROUTINE, CALLED 4 TIMES, CODE SIZE REDUCTION:9 WORDS
                 SUBOPT_0x23:
001079 940e 0a6b 	CALL _Write_String_6x8
00107b e0e9      	LDI  R30,LOW(9)
00107c 93ea      	ST   -Y,R30
00107d e0e6      	LDI  R30,LOW(6)
00107e 93ea      	ST   -Y,R30
00107f 9508      	RET
                 
                 ;OPTIMIZER ADDED SUBROUTINE, CALLED 4 TIMES, CODE SIZE REDUCTION:6 WORDS
                 SUBOPT_0x24:
001080 940e 110c 	CALL __GEB12U
001082 2e0e      	MOV  R0,R30
001083 91a0 053d 	LDS  R26,_hour
001085 9508      	RET
                 
                 ;OPTIMIZER ADDED SUBROUTINE, CALLED 2 TIMES, CODE SIZE REDUCTION:13 WORDS
                 SUBOPT_0x25:
001086 e0e9      	LDI  R30,LOW(9)
001087 940e 1111 	CALL __LTB12U
001089 21e0      	AND  R30,R0
00108a 2e1e      	MOV  R1,R30
00108b 91a0 053d 	LDS  R26,_hour
00108d e1e2      	LDI  R30,LOW(18)
00108e 940e 1116 	CALL __GTB12U
001090 2e0e      	MOV  R0,R30
001091 e1e4      	LDI  R30,LOW(20)
001092 940e 1107 	CALL __LEB12U
001094 21e0      	AND  R30,R0
001095 29e1      	OR   R30,R1
001096 9508      	RET
                 
                 ;OPTIMIZER ADDED SUBROUTINE, CALLED 2 TIMES, CODE SIZE REDUCTION:1 WORDS
                 SUBOPT_0x26:
001097 e0e3      	LDI  R30,LOW(3)
001098 93ea      	ST   -Y,R30
                +
001099 e2a7     +LDI R26 , LOW ( 2 * _0x0 + ( 135 ) )
00109a e0bf     +LDI R27 , HIGH ( 2 * _0x0 + ( 135 ) )
                 	__POINTW2FN _0x0,135
00109b cfcd      	RJMP SUBOPT_0x21
                 
                 ;OPTIMIZER ADDED SUBROUTINE, CALLED 4 TIMES, CODE SIZE REDUCTION:6 WORDS
                 SUBOPT_0x27:
00109c 91ed      	LD   R30,X+
00109d 91fd      	LD   R31,X+
00109e 9631      	ADIW R30,1
00109f 93fe      	ST   -X,R31
0010a0 93ee      	ST   -X,R30
0010a1 9508      	RET
                 
                 ;OPTIMIZER ADDED SUBROUTINE, CALLED 2 TIMES, CODE SIZE REDUCTION:3 WORDS
                 SUBOPT_0x28:
0010a2 91e0 053d 	LDS  R30,_hour
0010a4 5fef      	SUBI R30,-LOW(1)
0010a5 93e0 053d 	STS  _hour,R30
0010a7 91a0 053d 	LDS  R26,_hour
0010a9 31a8      	CPI  R26,LOW(0x18)
0010aa 9508      	RET
                 
                 ;OPTIMIZER ADDED SUBROUTINE, CALLED 2 TIMES, CODE SIZE REDUCTION:3 WORDS
                 SUBOPT_0x29:
0010ab 91e0 053c 	LDS  R30,_min
0010ad 5fef      	SUBI R30,-LOW(1)
0010ae 93e0 053c 	STS  _min,R30
0010b0 91a0 053c 	LDS  R26,_min
0010b2 33ac      	CPI  R26,LOW(0x3C)
0010b3 9508      	RET
                 
                 ;OPTIMIZER ADDED SUBROUTINE, CALLED 2 TIMES, CODE SIZE REDUCTION:2 WORDS
                 SUBOPT_0x2A:
0010b4 93e0 0502 	STS  _cnt1,R30
0010b6 e0e0      	LDI  R30,LOW(0)
0010b7 93e0 0503 	STS  _cnt2,R30
0010b9 940c 091a 	JMP  _Counter_add
                 
                 ;OPTIMIZER ADDED SUBROUTINE, CALLED 5 TIMES, CODE SIZE REDUCTION:13 WORDS
                 SUBOPT_0x2B:
0010bb 932a      	ST   -Y,R18
0010bc 85ad      	LDD  R26,Y+13
0010bd 85be      	LDD  R27,Y+13+1
0010be 85ef      	LDD  R30,Y+15
0010bf 89f8      	LDD  R31,Y+15+1
0010c0 9509      	ICALL
0010c1 9508      	RET
                 
                 ;OPTIMIZER ADDED SUBROUTINE, CALLED 5 TIMES, CODE SIZE REDUCTION:9 WORDS
                 SUBOPT_0x2C:
0010c2 89e8      	LDD  R30,Y+16
0010c3 89f9      	LDD  R31,Y+16+1
0010c4 9734      	SBIW R30,4
0010c5 8be8      	STD  Y+16,R30
0010c6 8bf9      	STD  Y+16+1,R31
0010c7 9508      	RET
                 
                 ;OPTIMIZER ADDED SUBROUTINE, CALLED 3 TIMES, CODE SIZE REDUCTION:3 WORDS
                 SUBOPT_0x2D:
0010c8 85ad      	LDD  R26,Y+13
0010c9 85be      	LDD  R27,Y+13+1
0010ca 85ef      	LDD  R30,Y+15
0010cb 89f8      	LDD  R31,Y+15+1
0010cc 9509      	ICALL
0010cd 9508      	RET
                 
                 ;OPTIMIZER ADDED SUBROUTINE, CALLED 2 TIMES, CODE SIZE REDUCTION:4 WORDS
                 SUBOPT_0x2E:
0010ce 89a8      	LDD  R26,Y+16
0010cf 89b9      	LDD  R27,Y+16+1
0010d0 9614      	ADIW R26,4
0010d1 940e 1163 	CALL __GETW1P
0010d3 83ee      	STD  Y+6,R30
0010d4 83ff      	STD  Y+6+1,R31
0010d5 81ae      	LDD  R26,Y+6
0010d6 81bf      	LDD  R27,Y+6+1
0010d7 9508      	RET
                 
                 ;OPTIMIZER ADDED SUBROUTINE, CALLED 2 TIMES, CODE SIZE REDUCTION:2 WORDS
                 SUBOPT_0x2F:
0010d8 89a8      	LDD  R26,Y+16
0010d9 89b9      	LDD  R27,Y+16+1
0010da 9614      	ADIW R26,4
0010db 940e 1163 	CALL __GETW1P
0010dd 87ea      	STD  Y+10,R30
0010de 87fb      	STD  Y+10+1,R31
0010df 9508      	RET
                 
                 ;OPTIMIZER ADDED SUBROUTINE, CALLED 2 TIMES, CODE SIZE REDUCTION:1 WORDS
                 SUBOPT_0x30:
0010e0 01de      	MOVW R26,R28
0010e1 961c      	ADIW R26,12
0010e2 940e 10fa 	CALL __ADDW2R15
0010e4 940e 1163 	CALL __GETW1P
0010e6 9508      	RET
                 
                 ;OPTIMIZER ADDED SUBROUTINE, CALLED 2 TIMES, CODE SIZE REDUCTION:3 WORDS
                 SUBOPT_0x31:
0010e7 940e 10fa 	CALL __ADDW2R15
0010e9 940e 1163 	CALL __GETW1P
0010eb 93fa      	ST   -Y,R31
0010ec 93ea      	ST   -Y,R30
0010ed 931a      	ST   -Y,R17
0010ee 930a      	ST   -Y,R16
0010ef 9508      	RET
                 
                 
                 	.CSEG
                 _delay_ms:
0010f0 9610      	adiw r26,0
0010f1 f039      	breq __delay_ms1
                 __delay_ms0:
                +
0010f2 ea80     +LDI R24 , LOW ( 0xFA0 )
0010f3 e09f     +LDI R25 , HIGH ( 0xFA0 )
                +__DELAY_USW_LOOP :
0010f4 9701     +SBIW R24 , 1
0010f5 f7f1     +BRNE __DELAY_USW_LOOP
                 	__DELAY_USW 0xFA0
0010f6 95a8      	wdr
0010f7 9711      	sbiw r26,1
0010f8 f7c9      	brne __delay_ms0
                 __delay_ms1:
0010f9 9508      	ret
                 
                 __ADDW2R15:
0010fa 2400      	CLR  R0
0010fb 0daf      	ADD  R26,R15
0010fc 1db0      	ADC  R27,R0
0010fd 9508      	RET
                 
                 __ANEGW1:
0010fe 95f1      	NEG  R31
0010ff 95e1      	NEG  R30
001100 40f0      	SBCI R31,0
001101 9508      	RET
                 
                 __CWD1:
001102 2f6f      	MOV  R22,R31
001103 0f66      	ADD  R22,R22
001104 0b66      	SBC  R22,R22
001105 2f76      	MOV  R23,R22
001106 9508      	RET
                 
                 __LEB12U:
001107 17ea      	CP   R30,R26
001108 e0e1      	LDI  R30,1
001109 f408      	BRSH __LEB12U1
00110a 27ee      	CLR  R30
                 __LEB12U1:
00110b 9508      	RET
                 
                 __GEB12U:
00110c 17ae      	CP   R26,R30
00110d e0e1      	LDI  R30,1
00110e f408      	BRSH __GEB12U1
00110f 27ee      	CLR  R30
                 __GEB12U1:
001110 9508      	RET
                 
                 __LTB12U:
001111 17ae      	CP   R26,R30
001112 e0e1      	LDI  R30,1
001113 f008      	BRLO __LTB12U1
001114 27ee      	CLR  R30
                 __LTB12U1:
001115 9508      	RET
                 
                 __GTB12U:
001116 17ea      	CP   R30,R26
001117 e0e1      	LDI  R30,1
001118 f008      	BRLO __GTB12U1
001119 27ee      	CLR  R30
                 __GTB12U1:
00111a 9508      	RET
                 
                 __EQW12:
00111b 17ea      	CP   R30,R26
00111c 07fb      	CPC  R31,R27
00111d e0e1      	LDI  R30,1
00111e f009      	BREQ __EQW12T
00111f 27ee      	CLR  R30
                 __EQW12T:
001120 9508      	RET
                 
                 __MULW12U:
001121 9ffa      	MUL  R31,R26
001122 2df0      	MOV  R31,R0
001123 9feb      	MUL  R30,R27
001124 0df0      	ADD  R31,R0
001125 9fea      	MUL  R30,R26
001126 2de0      	MOV  R30,R0
001127 0df1      	ADD  R31,R1
001128 9508      	RET
                 
                 __MULB1W2U:
001129 2f6e      	MOV  R22,R30
00112a 9f6a      	MUL  R22,R26
00112b 01f0      	MOVW R30,R0
00112c 9f6b      	MUL  R22,R27
00112d 0df0      	ADD  R31,R0
00112e 9508      	RET
                 
                 __DIVW21U:
00112f 2400      	CLR  R0
001130 2411      	CLR  R1
001131 e190      	LDI  R25,16
                 __DIVW21U1:
001132 0faa      	LSL  R26
001133 1fbb      	ROL  R27
001134 1c00      	ROL  R0
001135 1c11      	ROL  R1
001136 1a0e      	SUB  R0,R30
001137 0a1f      	SBC  R1,R31
001138 f418      	BRCC __DIVW21U2
001139 0e0e      	ADD  R0,R30
00113a 1e1f      	ADC  R1,R31
00113b c001      	RJMP __DIVW21U3
                 __DIVW21U2:
00113c 60a1      	SBR  R26,1
                 __DIVW21U3:
00113d 959a      	DEC  R25
00113e f799      	BRNE __DIVW21U1
00113f 01fd      	MOVW R30,R26
001140 01d0      	MOVW R26,R0
001141 9508      	RET
                 
                 __DIVW21:
001142 d012      	RCALL __CHKSIGNW
001143 dfeb      	RCALL __DIVW21U
001144 f40e      	BRTC __DIVW211
001145 dfb8      	RCALL __ANEGW1
                 __DIVW211:
001146 9508      	RET
                 
                 __MODW21:
001147 94e8      	CLT
001148 ffb7      	SBRS R27,7
001149 c004      	RJMP __MODW211
00114a 95a0      	COM  R26
00114b 95b0      	COM  R27
00114c 9611      	ADIW R26,1
00114d 9468      	SET
                 __MODW211:
00114e fdf7      	SBRC R31,7
00114f dfae      	RCALL __ANEGW1
001150 dfde      	RCALL __DIVW21U
001151 01fd      	MOVW R30,R26
001152 f40e      	BRTC __MODW212
001153 dfaa      	RCALL __ANEGW1
                 __MODW212:
001154 9508      	RET
                 
                 __CHKSIGNW:
001155 94e8      	CLT
001156 fff7      	SBRS R31,7
001157 c002      	RJMP __CHKSW1
001158 dfa5      	RCALL __ANEGW1
001159 9468      	SET
                 __CHKSW1:
00115a ffb7      	SBRS R27,7
00115b c006      	RJMP __CHKSW2
00115c 95a0      	COM  R26
00115d 95b0      	COM  R27
00115e 9611      	ADIW R26,1
00115f f800      	BLD  R0,0
001160 9403      	INC  R0
001161 fa00      	BST  R0,0
                 __CHKSW2:
001162 9508      	RET
                 
                 __GETW1P:
001163 91ed      	LD   R30,X+
001164 91fc      	LD   R31,X
001165 9711      	SBIW R26,1
001166 9508      	RET
                 
                 __GETW1PF:
001167 9005      	LPM  R0,Z+
001168 91f4      	LPM  R31,Z
001169 2de0      	MOV  R30,R0
00116a 9508      	RET
                 
                 __PUTPARD1:
00116b 937a      	ST   -Y,R23
00116c 936a      	ST   -Y,R22
00116d 93fa      	ST   -Y,R31
00116e 93ea      	ST   -Y,R30
00116f 9508      	RET
                 
                 __SAVELOCR6:
001170 935a      	ST   -Y,R21
                 __SAVELOCR5:
001171 934a      	ST   -Y,R20
                 __SAVELOCR4:
001172 933a      	ST   -Y,R19
                 __SAVELOCR3:
001173 932a      	ST   -Y,R18
                 __SAVELOCR2:
001174 931a      	ST   -Y,R17
001175 930a      	ST   -Y,R16
001176 9508      	RET
                 
                 __LOADLOCR6:
001177 815d      	LDD  R21,Y+5
                 __LOADLOCR5:
001178 814c      	LDD  R20,Y+4
                 __LOADLOCR4:
001179 813b      	LDD  R19,Y+3
                 __LOADLOCR3:
00117a 812a      	LDD  R18,Y+2
                 __LOADLOCR2:
00117b 8119      	LDD  R17,Y+1
00117c 8108      	LD   R16,Y
00117d 9508      	RET
                 
                 ;END OF CODE MARKER
                 __END_OF_CODE:


RESOURCE USE INFORMATION
------------------------

Notice:
The register and instruction counts are symbol table hit counts,
and hence implicitly used resources are not counted, eg, the
'lpm' instruction without operands implicitly uses r0 and z,
none of which are counted.

x,y,z are separate entities in the symbol table and are
counted separately from r26..r31 here.

.dseg memory usage only counts static data declared with .byte

ATmega128 register use summary:
r0 :  49 r1 :  13 r2 :   0 r3 :   0 r4 :   4 r5 :   2 r6 :   8 r7 :   6 
r8 :   2 r9 :   1 r10:   7 r11:   2 r12:   3 r13:   3 r14:   0 r15:  10 
r16:  45 r17:  37 r18:  38 r19:  11 r20:   9 r21:  17 r22:  20 r23:   6 
r24:  19 r25:   8 r26: 305 r27:  87 r28:  24 r29:   1 r30: 657 r31: 154 
x  :  34 y  : 293 z  :  27 
Registers used: 32 out of 35 (91.4%)

ATmega128 instruction use summary:
.lds  :   0 .lds.l:   0 .sts  :   0 .sts.l:   0 adc   :   5 add   :  12 
adiw  :  41 and   :  11 andi  :   8 asr   :   0 bclr  :   0 bld   :   1 
brbc  :   0 brbs  :   0 brcc  :   1 brcs  :   0 break :   0 breq  :  33 
brge  :   6 brhc  :   0 brhs  :   0 brid  :   0 brie  :   0 brlo  :  28 
brlt  :   1 brmi  :   1 brne  :  68 brpl  :   1 brsh  :  10 brtc  :   2 
brts  :   0 brvc  :   0 brvs  :   0 bset  :   0 bst   :   1 call  : 218 
cbi   :  14 cbr   :   0 clc   :   0 clh   :   0 cli   :   1 cln   :   0 
clr   :  26 cls   :   0 clt   :   2 clv   :   0 clz   :   0 com   :   8 
cp    :  16 cpc   :  19 cpi   :  85 cpse  :   0 dec   :   2 des   :   0 
elpm  :   0 eor   :   0 fmul  :   0 fmuls :   0 fmulsu:   0 icall :   2 
ijmp  :   0 in    :   7 inc   :   1 jmp   :  47 ld    :  46 ldd   :  99 
ldi   : 351 lds   :  81 lpm   :  28 lsl   :   3 lsr   :   0 mov   :  31 
movw  :  42 mul   :   6 muls  :   2 mulsu :   0 neg   :   2 nop   :   0 
or    :   3 ori   :  12 out   :  38 pop   :   2 push  :   2 rcall :  52 
ret   :  86 reti  :   1 rjmp  : 126 rol   :   5 ror   :   0 sbc   :   3 
sbci  :  18 sbi   :  10 sbic  :  12 sbis  :   1 sbiw  :  30 sbr   :   1 
sbrc  :   3 sbrs  :  13 sec   :   0 seh   :   0 sei   :   0 sen   :   0 
ser   :   0 ses   :   0 set   :   2 sev   :   0 sez   :   0 sleep :   0 
spm   :   0 st    : 151 std   :  39 sts   :  94 sub   :   3 subi  :  49 
swap  :   0 tst   :   4 wdr   :   1 
Instructions used: 69 out of 117 (59.0%)

ATmega128 memory use summary [bytes]:
Segment   Begin    End      Code   Data   Used    Size   Use%
---------------------------------------------------------------
[.cseg] 0x000000 0x0022fc   5122   3834   8956  131072   6.8%
[.dseg] 0x000100 0x000542      0     66     66    4096   1.6%
[.eseg] 0x000000 0x000000      0      0      0    4096   0.0%

Assembly complete, 0 errors, 14 warnings
