
;CodeVisionAVR C Compiler V3.12 Advanced
;(C) Copyright 1998-2014 Pavel Haiduc, HP InfoTech s.r.l.
;http://www.hpinfotech.com

;Build configuration    : Debug
;Chip type              : ATmega128
;Program type           : Application
;Clock frequency        : 16.000000 MHz
;Memory model           : Small
;Optimize for           : Size
;(s)printf features     : int, width
;(s)scanf features      : int, width
;External RAM size      : 0
;Data Stack size        : 1024 byte(s)
;Heap size              : 0 byte(s)
;Promote 'char' to 'int': Yes
;'char' is unsigned     : Yes
;8 bit enums            : Yes
;Global 'const' stored in FLASH: Yes
;Enhanced function parameter passing: Yes
;Enhanced core instructions: On
;Automatic register allocation for global variables: On
;Smart register allocation: On

	#define _MODEL_SMALL_

	#pragma AVRPART ADMIN PART_NAME ATmega128
	#pragma AVRPART MEMORY PROG_FLASH 131072
	#pragma AVRPART MEMORY EEPROM 4096
	#pragma AVRPART MEMORY INT_SRAM SIZE 4096
	#pragma AVRPART MEMORY INT_SRAM START_ADDR 0x100

	#define CALL_SUPPORTED 1

	.LISTMAC
	.EQU UDRE=0x5
	.EQU RXC=0x7
	.EQU USR=0xB
	.EQU UDR=0xC
	.EQU SPSR=0xE
	.EQU SPDR=0xF
	.EQU EERE=0x0
	.EQU EEWE=0x1
	.EQU EEMWE=0x2
	.EQU EECR=0x1C
	.EQU EEDR=0x1D
	.EQU EEARL=0x1E
	.EQU EEARH=0x1F
	.EQU WDTCR=0x21
	.EQU MCUCR=0x35
	.EQU RAMPZ=0x3B
	.EQU SPL=0x3D
	.EQU SPH=0x3E
	.EQU SREG=0x3F
	.EQU XMCRA=0x6D
	.EQU XMCRB=0x6C

	.DEF R0X0=R0
	.DEF R0X1=R1
	.DEF R0X2=R2
	.DEF R0X3=R3
	.DEF R0X4=R4
	.DEF R0X5=R5
	.DEF R0X6=R6
	.DEF R0X7=R7
	.DEF R0X8=R8
	.DEF R0X9=R9
	.DEF R0XA=R10
	.DEF R0XB=R11
	.DEF R0XC=R12
	.DEF R0XD=R13
	.DEF R0XE=R14
	.DEF R0XF=R15
	.DEF R0X10=R16
	.DEF R0X11=R17
	.DEF R0X12=R18
	.DEF R0X13=R19
	.DEF R0X14=R20
	.DEF R0X15=R21
	.DEF R0X16=R22
	.DEF R0X17=R23
	.DEF R0X18=R24
	.DEF R0X19=R25
	.DEF R0X1A=R26
	.DEF R0X1B=R27
	.DEF R0X1C=R28
	.DEF R0X1D=R29
	.DEF R0X1E=R30
	.DEF R0X1F=R31

	.EQU __SRAM_START=0x0100
	.EQU __SRAM_END=0x10FF
	.EQU __DSTACK_SIZE=0x0400
	.EQU __HEAP_SIZE=0x0000
	.EQU __CLEAR_SRAM_SIZE=__SRAM_END-__SRAM_START+1

	.MACRO __CPD1N
	CPI  R30,LOW(@0)
	LDI  R26,HIGH(@0)
	CPC  R31,R26
	LDI  R26,BYTE3(@0)
	CPC  R22,R26
	LDI  R26,BYTE4(@0)
	CPC  R23,R26
	.ENDM

	.MACRO __CPD2N
	CPI  R26,LOW(@0)
	LDI  R30,HIGH(@0)
	CPC  R27,R30
	LDI  R30,BYTE3(@0)
	CPC  R24,R30
	LDI  R30,BYTE4(@0)
	CPC  R25,R30
	.ENDM

	.MACRO __CPWRR
	CP   R@0,R@2
	CPC  R@1,R@3
	.ENDM

	.MACRO __CPWRN
	CPI  R@0,LOW(@2)
	LDI  R30,HIGH(@2)
	CPC  R@1,R30
	.ENDM

	.MACRO __ADDB1MN
	SUBI R30,LOW(-@0-(@1))
	.ENDM

	.MACRO __ADDB2MN
	SUBI R26,LOW(-@0-(@1))
	.ENDM

	.MACRO __ADDW1MN
	SUBI R30,LOW(-@0-(@1))
	SBCI R31,HIGH(-@0-(@1))
	.ENDM

	.MACRO __ADDW2MN
	SUBI R26,LOW(-@0-(@1))
	SBCI R27,HIGH(-@0-(@1))
	.ENDM

	.MACRO __ADDW1FN
	SUBI R30,LOW(-2*@0-(@1))
	SBCI R31,HIGH(-2*@0-(@1))
	.ENDM

	.MACRO __ADDD1FN
	SUBI R30,LOW(-2*@0-(@1))
	SBCI R31,HIGH(-2*@0-(@1))
	SBCI R22,BYTE3(-2*@0-(@1))
	.ENDM

	.MACRO __ADDD1N
	SUBI R30,LOW(-@0)
	SBCI R31,HIGH(-@0)
	SBCI R22,BYTE3(-@0)
	SBCI R23,BYTE4(-@0)
	.ENDM

	.MACRO __ADDD2N
	SUBI R26,LOW(-@0)
	SBCI R27,HIGH(-@0)
	SBCI R24,BYTE3(-@0)
	SBCI R25,BYTE4(-@0)
	.ENDM

	.MACRO __SUBD1N
	SUBI R30,LOW(@0)
	SBCI R31,HIGH(@0)
	SBCI R22,BYTE3(@0)
	SBCI R23,BYTE4(@0)
	.ENDM

	.MACRO __SUBD2N
	SUBI R26,LOW(@0)
	SBCI R27,HIGH(@0)
	SBCI R24,BYTE3(@0)
	SBCI R25,BYTE4(@0)
	.ENDM

	.MACRO __ANDBMNN
	LDS  R30,@0+(@1)
	ANDI R30,LOW(@2)
	STS  @0+(@1),R30
	.ENDM

	.MACRO __ANDWMNN
	LDS  R30,@0+(@1)
	ANDI R30,LOW(@2)
	STS  @0+(@1),R30
	LDS  R30,@0+(@1)+1
	ANDI R30,HIGH(@2)
	STS  @0+(@1)+1,R30
	.ENDM

	.MACRO __ANDD1N
	ANDI R30,LOW(@0)
	ANDI R31,HIGH(@0)
	ANDI R22,BYTE3(@0)
	ANDI R23,BYTE4(@0)
	.ENDM

	.MACRO __ANDD2N
	ANDI R26,LOW(@0)
	ANDI R27,HIGH(@0)
	ANDI R24,BYTE3(@0)
	ANDI R25,BYTE4(@0)
	.ENDM

	.MACRO __ORBMNN
	LDS  R30,@0+(@1)
	ORI  R30,LOW(@2)
	STS  @0+(@1),R30
	.ENDM

	.MACRO __ORWMNN
	LDS  R30,@0+(@1)
	ORI  R30,LOW(@2)
	STS  @0+(@1),R30
	LDS  R30,@0+(@1)+1
	ORI  R30,HIGH(@2)
	STS  @0+(@1)+1,R30
	.ENDM

	.MACRO __ORD1N
	ORI  R30,LOW(@0)
	ORI  R31,HIGH(@0)
	ORI  R22,BYTE3(@0)
	ORI  R23,BYTE4(@0)
	.ENDM

	.MACRO __ORD2N
	ORI  R26,LOW(@0)
	ORI  R27,HIGH(@0)
	ORI  R24,BYTE3(@0)
	ORI  R25,BYTE4(@0)
	.ENDM

	.MACRO __DELAY_USB
	LDI  R24,LOW(@0)
__DELAY_USB_LOOP:
	DEC  R24
	BRNE __DELAY_USB_LOOP
	.ENDM

	.MACRO __DELAY_USW
	LDI  R24,LOW(@0)
	LDI  R25,HIGH(@0)
__DELAY_USW_LOOP:
	SBIW R24,1
	BRNE __DELAY_USW_LOOP
	.ENDM

	.MACRO __GETD1S
	LDD  R30,Y+@0
	LDD  R31,Y+@0+1
	LDD  R22,Y+@0+2
	LDD  R23,Y+@0+3
	.ENDM

	.MACRO __GETD2S
	LDD  R26,Y+@0
	LDD  R27,Y+@0+1
	LDD  R24,Y+@0+2
	LDD  R25,Y+@0+3
	.ENDM

	.MACRO __PUTD1S
	STD  Y+@0,R30
	STD  Y+@0+1,R31
	STD  Y+@0+2,R22
	STD  Y+@0+3,R23
	.ENDM

	.MACRO __PUTD2S
	STD  Y+@0,R26
	STD  Y+@0+1,R27
	STD  Y+@0+2,R24
	STD  Y+@0+3,R25
	.ENDM

	.MACRO __PUTDZ2
	STD  Z+@0,R26
	STD  Z+@0+1,R27
	STD  Z+@0+2,R24
	STD  Z+@0+3,R25
	.ENDM

	.MACRO __CLRD1S
	STD  Y+@0,R30
	STD  Y+@0+1,R30
	STD  Y+@0+2,R30
	STD  Y+@0+3,R30
	.ENDM

	.MACRO __POINTB1MN
	LDI  R30,LOW(@0+(@1))
	.ENDM

	.MACRO __POINTW1MN
	LDI  R30,LOW(@0+(@1))
	LDI  R31,HIGH(@0+(@1))
	.ENDM

	.MACRO __POINTD1M
	LDI  R30,LOW(@0)
	LDI  R31,HIGH(@0)
	LDI  R22,BYTE3(@0)
	LDI  R23,BYTE4(@0)
	.ENDM

	.MACRO __POINTW1FN
	LDI  R30,LOW(2*@0+(@1))
	LDI  R31,HIGH(2*@0+(@1))
	.ENDM

	.MACRO __POINTD1FN
	LDI  R30,LOW(2*@0+(@1))
	LDI  R31,HIGH(2*@0+(@1))
	LDI  R22,BYTE3(2*@0+(@1))
	LDI  R23,BYTE4(2*@0+(@1))
	.ENDM

	.MACRO __POINTB2MN
	LDI  R26,LOW(@0+(@1))
	.ENDM

	.MACRO __POINTW2MN
	LDI  R26,LOW(@0+(@1))
	LDI  R27,HIGH(@0+(@1))
	.ENDM

	.MACRO __POINTW2FN
	LDI  R26,LOW(2*@0+(@1))
	LDI  R27,HIGH(2*@0+(@1))
	.ENDM

	.MACRO __POINTD2FN
	LDI  R26,LOW(2*@0+(@1))
	LDI  R27,HIGH(2*@0+(@1))
	LDI  R24,BYTE3(2*@0+(@1))
	LDI  R25,BYTE4(2*@0+(@1))
	.ENDM

	.MACRO __POINTBRM
	LDI  R@0,LOW(@1)
	.ENDM

	.MACRO __POINTWRM
	LDI  R@0,LOW(@2)
	LDI  R@1,HIGH(@2)
	.ENDM

	.MACRO __POINTBRMN
	LDI  R@0,LOW(@1+(@2))
	.ENDM

	.MACRO __POINTWRMN
	LDI  R@0,LOW(@2+(@3))
	LDI  R@1,HIGH(@2+(@3))
	.ENDM

	.MACRO __POINTWRFN
	LDI  R@0,LOW(@2*2+(@3))
	LDI  R@1,HIGH(@2*2+(@3))
	.ENDM

	.MACRO __GETD1N
	LDI  R30,LOW(@0)
	LDI  R31,HIGH(@0)
	LDI  R22,BYTE3(@0)
	LDI  R23,BYTE4(@0)
	.ENDM

	.MACRO __GETD2N
	LDI  R26,LOW(@0)
	LDI  R27,HIGH(@0)
	LDI  R24,BYTE3(@0)
	LDI  R25,BYTE4(@0)
	.ENDM

	.MACRO __GETB1MN
	LDS  R30,@0+(@1)
	.ENDM

	.MACRO __GETB1HMN
	LDS  R31,@0+(@1)
	.ENDM

	.MACRO __GETW1MN
	LDS  R30,@0+(@1)
	LDS  R31,@0+(@1)+1
	.ENDM

	.MACRO __GETD1MN
	LDS  R30,@0+(@1)
	LDS  R31,@0+(@1)+1
	LDS  R22,@0+(@1)+2
	LDS  R23,@0+(@1)+3
	.ENDM

	.MACRO __GETBRMN
	LDS  R@0,@1+(@2)
	.ENDM

	.MACRO __GETWRMN
	LDS  R@0,@2+(@3)
	LDS  R@1,@2+(@3)+1
	.ENDM

	.MACRO __GETWRZ
	LDD  R@0,Z+@2
	LDD  R@1,Z+@2+1
	.ENDM

	.MACRO __GETD2Z
	LDD  R26,Z+@0
	LDD  R27,Z+@0+1
	LDD  R24,Z+@0+2
	LDD  R25,Z+@0+3
	.ENDM

	.MACRO __GETB2MN
	LDS  R26,@0+(@1)
	.ENDM

	.MACRO __GETW2MN
	LDS  R26,@0+(@1)
	LDS  R27,@0+(@1)+1
	.ENDM

	.MACRO __GETD2MN
	LDS  R26,@0+(@1)
	LDS  R27,@0+(@1)+1
	LDS  R24,@0+(@1)+2
	LDS  R25,@0+(@1)+3
	.ENDM

	.MACRO __PUTB1MN
	STS  @0+(@1),R30
	.ENDM

	.MACRO __PUTW1MN
	STS  @0+(@1),R30
	STS  @0+(@1)+1,R31
	.ENDM

	.MACRO __PUTD1MN
	STS  @0+(@1),R30
	STS  @0+(@1)+1,R31
	STS  @0+(@1)+2,R22
	STS  @0+(@1)+3,R23
	.ENDM

	.MACRO __PUTB1EN
	LDI  R26,LOW(@0+(@1))
	LDI  R27,HIGH(@0+(@1))
	CALL __EEPROMWRB
	.ENDM

	.MACRO __PUTW1EN
	LDI  R26,LOW(@0+(@1))
	LDI  R27,HIGH(@0+(@1))
	CALL __EEPROMWRW
	.ENDM

	.MACRO __PUTD1EN
	LDI  R26,LOW(@0+(@1))
	LDI  R27,HIGH(@0+(@1))
	CALL __EEPROMWRD
	.ENDM

	.MACRO __PUTBR0MN
	STS  @0+(@1),R0
	.ENDM

	.MACRO __PUTBMRN
	STS  @0+(@1),R@2
	.ENDM

	.MACRO __PUTWMRN
	STS  @0+(@1),R@2
	STS  @0+(@1)+1,R@3
	.ENDM

	.MACRO __PUTBZR
	STD  Z+@1,R@0
	.ENDM

	.MACRO __PUTWZR
	STD  Z+@2,R@0
	STD  Z+@2+1,R@1
	.ENDM

	.MACRO __GETW1R
	MOV  R30,R@0
	MOV  R31,R@1
	.ENDM

	.MACRO __GETW2R
	MOV  R26,R@0
	MOV  R27,R@1
	.ENDM

	.MACRO __GETWRN
	LDI  R@0,LOW(@2)
	LDI  R@1,HIGH(@2)
	.ENDM

	.MACRO __PUTW1R
	MOV  R@0,R30
	MOV  R@1,R31
	.ENDM

	.MACRO __PUTW2R
	MOV  R@0,R26
	MOV  R@1,R27
	.ENDM

	.MACRO __ADDWRN
	SUBI R@0,LOW(-@2)
	SBCI R@1,HIGH(-@2)
	.ENDM

	.MACRO __ADDWRR
	ADD  R@0,R@2
	ADC  R@1,R@3
	.ENDM

	.MACRO __SUBWRN
	SUBI R@0,LOW(@2)
	SBCI R@1,HIGH(@2)
	.ENDM

	.MACRO __SUBWRR
	SUB  R@0,R@2
	SBC  R@1,R@3
	.ENDM

	.MACRO __ANDWRN
	ANDI R@0,LOW(@2)
	ANDI R@1,HIGH(@2)
	.ENDM

	.MACRO __ANDWRR
	AND  R@0,R@2
	AND  R@1,R@3
	.ENDM

	.MACRO __ORWRN
	ORI  R@0,LOW(@2)
	ORI  R@1,HIGH(@2)
	.ENDM

	.MACRO __ORWRR
	OR   R@0,R@2
	OR   R@1,R@3
	.ENDM

	.MACRO __EORWRR
	EOR  R@0,R@2
	EOR  R@1,R@3
	.ENDM

	.MACRO __GETWRS
	LDD  R@0,Y+@2
	LDD  R@1,Y+@2+1
	.ENDM

	.MACRO __PUTBSR
	STD  Y+@1,R@0
	.ENDM

	.MACRO __PUTWSR
	STD  Y+@2,R@0
	STD  Y+@2+1,R@1
	.ENDM

	.MACRO __MOVEWRR
	MOV  R@0,R@2
	MOV  R@1,R@3
	.ENDM

	.MACRO __INWR
	IN   R@0,@2
	IN   R@1,@2+1
	.ENDM

	.MACRO __OUTWR
	OUT  @2+1,R@1
	OUT  @2,R@0
	.ENDM

	.MACRO __CALL1MN
	LDS  R30,@0+(@1)
	LDS  R31,@0+(@1)+1
	ICALL
	.ENDM

	.MACRO __CALL1FN
	LDI  R30,LOW(2*@0+(@1))
	LDI  R31,HIGH(2*@0+(@1))
	CALL __GETW1PF
	ICALL
	.ENDM

	.MACRO __CALL2EN
	PUSH R26
	PUSH R27
	LDI  R26,LOW(@0+(@1))
	LDI  R27,HIGH(@0+(@1))
	CALL __EEPROMRDW
	POP  R27
	POP  R26
	ICALL
	.ENDM

	.MACRO __CALL2EX
	SUBI R26,LOW(-@0)
	SBCI R27,HIGH(-@0)
	CALL __EEPROMRDD
	ICALL
	.ENDM

	.MACRO __GETW1STACK
	IN   R30,SPL
	IN   R31,SPH
	ADIW R30,@0+1
	LD   R0,Z+
	LD   R31,Z
	MOV  R30,R0
	.ENDM

	.MACRO __GETD1STACK
	IN   R30,SPL
	IN   R31,SPH
	ADIW R30,@0+1
	LD   R0,Z+
	LD   R1,Z+
	LD   R22,Z
	MOVW R30,R0
	.ENDM

	.MACRO __NBST
	BST  R@0,@1
	IN   R30,SREG
	LDI  R31,0x40
	EOR  R30,R31
	OUT  SREG,R30
	.ENDM


	.MACRO __PUTB1SN
	LDD  R26,Y+@0
	LDD  R27,Y+@0+1
	SUBI R26,LOW(-@1)
	SBCI R27,HIGH(-@1)
	ST   X,R30
	.ENDM

	.MACRO __PUTW1SN
	LDD  R26,Y+@0
	LDD  R27,Y+@0+1
	SUBI R26,LOW(-@1)
	SBCI R27,HIGH(-@1)
	ST   X+,R30
	ST   X,R31
	.ENDM

	.MACRO __PUTD1SN
	LDD  R26,Y+@0
	LDD  R27,Y+@0+1
	SUBI R26,LOW(-@1)
	SBCI R27,HIGH(-@1)
	CALL __PUTDP1
	.ENDM

	.MACRO __PUTB1SNS
	LDD  R26,Y+@0
	LDD  R27,Y+@0+1
	ADIW R26,@1
	ST   X,R30
	.ENDM

	.MACRO __PUTW1SNS
	LDD  R26,Y+@0
	LDD  R27,Y+@0+1
	ADIW R26,@1
	ST   X+,R30
	ST   X,R31
	.ENDM

	.MACRO __PUTD1SNS
	LDD  R26,Y+@0
	LDD  R27,Y+@0+1
	ADIW R26,@1
	CALL __PUTDP1
	.ENDM

	.MACRO __PUTB1PMN
	LDS  R26,@0
	LDS  R27,@0+1
	SUBI R26,LOW(-@1)
	SBCI R27,HIGH(-@1)
	ST   X,R30
	.ENDM

	.MACRO __PUTW1PMN
	LDS  R26,@0
	LDS  R27,@0+1
	SUBI R26,LOW(-@1)
	SBCI R27,HIGH(-@1)
	ST   X+,R30
	ST   X,R31
	.ENDM

	.MACRO __PUTD1PMN
	LDS  R26,@0
	LDS  R27,@0+1
	SUBI R26,LOW(-@1)
	SBCI R27,HIGH(-@1)
	CALL __PUTDP1
	.ENDM

	.MACRO __PUTB1PMNS
	LDS  R26,@0
	LDS  R27,@0+1
	ADIW R26,@1
	ST   X,R30
	.ENDM

	.MACRO __PUTW1PMNS
	LDS  R26,@0
	LDS  R27,@0+1
	ADIW R26,@1
	ST   X+,R30
	ST   X,R31
	.ENDM

	.MACRO __PUTD1PMNS
	LDS  R26,@0
	LDS  R27,@0+1
	ADIW R26,@1
	CALL __PUTDP1
	.ENDM

	.MACRO __PUTB1RN
	MOVW R26,R@0
	SUBI R26,LOW(-@1)
	SBCI R27,HIGH(-@1)
	ST   X,R30
	.ENDM

	.MACRO __PUTW1RN
	MOVW R26,R@0
	SUBI R26,LOW(-@1)
	SBCI R27,HIGH(-@1)
	ST   X+,R30
	ST   X,R31
	.ENDM

	.MACRO __PUTD1RN
	MOVW R26,R@0
	SUBI R26,LOW(-@1)
	SBCI R27,HIGH(-@1)
	CALL __PUTDP1
	.ENDM

	.MACRO __PUTB1RNS
	MOVW R26,R@0
	ADIW R26,@1
	ST   X,R30
	.ENDM

	.MACRO __PUTW1RNS
	MOVW R26,R@0
	ADIW R26,@1
	ST   X+,R30
	ST   X,R31
	.ENDM

	.MACRO __PUTD1RNS
	MOVW R26,R@0
	ADIW R26,@1
	CALL __PUTDP1
	.ENDM

	.MACRO __PUTB1RON
	MOV  R26,R@0
	MOV  R27,R@1
	SUBI R26,LOW(-@2)
	SBCI R27,HIGH(-@2)
	ST   X,R30
	.ENDM

	.MACRO __PUTW1RON
	MOV  R26,R@0
	MOV  R27,R@1
	SUBI R26,LOW(-@2)
	SBCI R27,HIGH(-@2)
	ST   X+,R30
	ST   X,R31
	.ENDM

	.MACRO __PUTD1RON
	MOV  R26,R@0
	MOV  R27,R@1
	SUBI R26,LOW(-@2)
	SBCI R27,HIGH(-@2)
	CALL __PUTDP1
	.ENDM

	.MACRO __PUTB1RONS
	MOV  R26,R@0
	MOV  R27,R@1
	ADIW R26,@2
	ST   X,R30
	.ENDM

	.MACRO __PUTW1RONS
	MOV  R26,R@0
	MOV  R27,R@1
	ADIW R26,@2
	ST   X+,R30
	ST   X,R31
	.ENDM

	.MACRO __PUTD1RONS
	MOV  R26,R@0
	MOV  R27,R@1
	ADIW R26,@2
	CALL __PUTDP1
	.ENDM


	.MACRO __GETB1SX
	MOVW R30,R28
	SUBI R30,LOW(-@0)
	SBCI R31,HIGH(-@0)
	LD   R30,Z
	.ENDM

	.MACRO __GETB1HSX
	MOVW R30,R28
	SUBI R30,LOW(-@0)
	SBCI R31,HIGH(-@0)
	LD   R31,Z
	.ENDM

	.MACRO __GETW1SX
	MOVW R30,R28
	SUBI R30,LOW(-@0)
	SBCI R31,HIGH(-@0)
	LD   R0,Z+
	LD   R31,Z
	MOV  R30,R0
	.ENDM

	.MACRO __GETD1SX
	MOVW R30,R28
	SUBI R30,LOW(-@0)
	SBCI R31,HIGH(-@0)
	LD   R0,Z+
	LD   R1,Z+
	LD   R22,Z+
	LD   R23,Z
	MOVW R30,R0
	.ENDM

	.MACRO __GETB2SX
	MOVW R26,R28
	SUBI R26,LOW(-@0)
	SBCI R27,HIGH(-@0)
	LD   R26,X
	.ENDM

	.MACRO __GETW2SX
	MOVW R26,R28
	SUBI R26,LOW(-@0)
	SBCI R27,HIGH(-@0)
	LD   R0,X+
	LD   R27,X
	MOV  R26,R0
	.ENDM

	.MACRO __GETD2SX
	MOVW R26,R28
	SUBI R26,LOW(-@0)
	SBCI R27,HIGH(-@0)
	LD   R0,X+
	LD   R1,X+
	LD   R24,X+
	LD   R25,X
	MOVW R26,R0
	.ENDM

	.MACRO __GETBRSX
	MOVW R30,R28
	SUBI R30,LOW(-@1)
	SBCI R31,HIGH(-@1)
	LD   R@0,Z
	.ENDM

	.MACRO __GETWRSX
	MOVW R30,R28
	SUBI R30,LOW(-@2)
	SBCI R31,HIGH(-@2)
	LD   R@0,Z+
	LD   R@1,Z
	.ENDM

	.MACRO __GETBRSX2
	MOVW R26,R28
	SUBI R26,LOW(-@1)
	SBCI R27,HIGH(-@1)
	LD   R@0,X
	.ENDM

	.MACRO __GETWRSX2
	MOVW R26,R28
	SUBI R26,LOW(-@2)
	SBCI R27,HIGH(-@2)
	LD   R@0,X+
	LD   R@1,X
	.ENDM

	.MACRO __LSLW8SX
	MOVW R30,R28
	SUBI R30,LOW(-@0)
	SBCI R31,HIGH(-@0)
	LD   R31,Z
	CLR  R30
	.ENDM

	.MACRO __PUTB1SX
	MOVW R26,R28
	SUBI R26,LOW(-@0)
	SBCI R27,HIGH(-@0)
	ST   X,R30
	.ENDM

	.MACRO __PUTW1SX
	MOVW R26,R28
	SUBI R26,LOW(-@0)
	SBCI R27,HIGH(-@0)
	ST   X+,R30
	ST   X,R31
	.ENDM

	.MACRO __PUTD1SX
	MOVW R26,R28
	SUBI R26,LOW(-@0)
	SBCI R27,HIGH(-@0)
	ST   X+,R30
	ST   X+,R31
	ST   X+,R22
	ST   X,R23
	.ENDM

	.MACRO __CLRW1SX
	MOVW R26,R28
	SUBI R26,LOW(-@0)
	SBCI R27,HIGH(-@0)
	ST   X+,R30
	ST   X,R30
	.ENDM

	.MACRO __CLRD1SX
	MOVW R26,R28
	SUBI R26,LOW(-@0)
	SBCI R27,HIGH(-@0)
	ST   X+,R30
	ST   X+,R30
	ST   X+,R30
	ST   X,R30
	.ENDM

	.MACRO __PUTB2SX
	MOVW R30,R28
	SUBI R30,LOW(-@0)
	SBCI R31,HIGH(-@0)
	ST   Z,R26
	.ENDM

	.MACRO __PUTW2SX
	MOVW R30,R28
	SUBI R30,LOW(-@0)
	SBCI R31,HIGH(-@0)
	ST   Z+,R26
	ST   Z,R27
	.ENDM

	.MACRO __PUTD2SX
	MOVW R30,R28
	SUBI R30,LOW(-@0)
	SBCI R31,HIGH(-@0)
	ST   Z+,R26
	ST   Z+,R27
	ST   Z+,R24
	ST   Z,R25
	.ENDM

	.MACRO __PUTBSRX
	MOVW R30,R28
	SUBI R30,LOW(-@1)
	SBCI R31,HIGH(-@1)
	ST   Z,R@0
	.ENDM

	.MACRO __PUTWSRX
	MOVW R30,R28
	SUBI R30,LOW(-@2)
	SBCI R31,HIGH(-@2)
	ST   Z+,R@0
	ST   Z,R@1
	.ENDM

	.MACRO __PUTB1SNX
	MOVW R26,R28
	SUBI R26,LOW(-@0)
	SBCI R27,HIGH(-@0)
	LD   R0,X+
	LD   R27,X
	MOV  R26,R0
	SUBI R26,LOW(-@1)
	SBCI R27,HIGH(-@1)
	ST   X,R30
	.ENDM

	.MACRO __PUTW1SNX
	MOVW R26,R28
	SUBI R26,LOW(-@0)
	SBCI R27,HIGH(-@0)
	LD   R0,X+
	LD   R27,X
	MOV  R26,R0
	SUBI R26,LOW(-@1)
	SBCI R27,HIGH(-@1)
	ST   X+,R30
	ST   X,R31
	.ENDM

	.MACRO __PUTD1SNX
	MOVW R26,R28
	SUBI R26,LOW(-@0)
	SBCI R27,HIGH(-@0)
	LD   R0,X+
	LD   R27,X
	MOV  R26,R0
	SUBI R26,LOW(-@1)
	SBCI R27,HIGH(-@1)
	ST   X+,R30
	ST   X+,R31
	ST   X+,R22
	ST   X,R23
	.ENDM

	.MACRO __MULBRR
	MULS R@0,R@1
	MOVW R30,R0
	.ENDM

	.MACRO __MULBRRU
	MUL  R@0,R@1
	MOVW R30,R0
	.ENDM

	.MACRO __MULBRR0
	MULS R@0,R@1
	.ENDM

	.MACRO __MULBRRU0
	MUL  R@0,R@1
	.ENDM

	.MACRO __MULBNWRU
	LDI  R26,@2
	MUL  R26,R@0
	MOVW R30,R0
	MUL  R26,R@1
	ADD  R31,R0
	.ENDM

;NAME DEFINITIONS FOR GLOBAL VARIABLES ALLOCATED TO REGISTERS
	.DEF _time_loop=R4
	.DEF _time_loop_msb=R5
	.DEF _led_count=R6
	.DEF _led_count_msb=R7
	.DEF _led_flag=R8
	.DEF _led_flag_msb=R9
	.DEF _time_count=R10
	.DEF _time_count_msb=R11
	.DEF _key4_flag=R13
	.DEF _key5_flag=R12

	.CSEG
	.ORG 0x00

;START OF CODE MARKER
__START_OF_CODE:

;INTERRUPT VECTORS
	JMP  __RESET
	JMP  0x00
	JMP  0x00
	JMP  0x00
	JMP  0x00
	JMP  _ext_int4_isr
	JMP  _ext_int5_isr
	JMP  _ext_int6_isr
	JMP  _ext_int7_isr
	JMP  0x00
	JMP  0x00
	JMP  0x00
	JMP  0x00
	JMP  0x00
	JMP  0x00
	JMP  0x00
	JMP  _timer0_ovf_isr
	JMP  0x00
	JMP  0x00
	JMP  0x00
	JMP  0x00
	JMP  0x00
	JMP  0x00
	JMP  0x00
	JMP  0x00
	JMP  0x00
	JMP  0x00
	JMP  0x00
	JMP  0x00
	JMP  0x00
	JMP  0x00
	JMP  0x00
	JMP  0x00
	JMP  0x00
	JMP  0x00

_fnd_font:
	.DB  0x3F,0x6,0x5B,0x4F,0x66,0x6D,0x7D,0x27
	.DB  0x7F,0x6F,0x76,0x38,0x79,0x5C,0x73,0x71
	.DB  0x39,0x5E,0x77,0x1C,0x44,0x50,0x7C
_font:
	.DB  0x0,0x0,0x0,0x0,0x0,0x0,0x0,0x4F
	.DB  0x0,0x0,0x0,0x7,0x0,0x7,0x0,0x14
	.DB  0x7F,0x14,0x7F,0x14,0x24,0x2A,0x7F,0x2A
	.DB  0x12,0x23,0x13,0x8,0x64,0x62,0x36,0x49
	.DB  0x55,0x22,0x50,0x0,0x5,0x3,0x0,0x0
	.DB  0x0,0x1C,0x22,0x41,0x0,0x0,0x41,0x22
	.DB  0x1C,0x0,0x14,0x8,0x3E,0x8,0x14,0x8
	.DB  0x8,0x3E,0x8,0x8,0x0,0x50,0x30,0x0
	.DB  0x0,0x8,0x8,0x8,0x8,0x8,0x0,0x60
	.DB  0x60,0x0,0x0,0x20,0x10,0x8,0x4,0x2
	.DB  0x3E,0x51,0x49,0x45,0x3E,0x0,0x42,0x7F
	.DB  0x40,0x0,0x42,0x61,0x51,0x49,0x46,0x21
	.DB  0x41,0x45,0x4B,0x31,0x18,0x14,0x12,0x7F
	.DB  0x10,0x27,0x45,0x45,0x45,0x39,0x3C,0x4A
	.DB  0x49,0x49,0x30,0x1,0x71,0x9,0x5,0x3
	.DB  0x36,0x49,0x49,0x49,0x36,0x6,0x49,0x49
	.DB  0x29,0x1E,0x0,0x36,0x36,0x0,0x0,0x0
	.DB  0x56,0x36,0x0,0x0,0x8,0x14,0x22,0x41
	.DB  0x0,0x14,0x14,0x14,0x14,0x14,0x0,0x41
	.DB  0x22,0x14,0x8,0x2,0x1,0x51,0x9,0x6
	.DB  0x32,0x49,0x79,0x41,0x3E,0x7E,0x11,0x11
	.DB  0x11,0x7E,0x7F,0x49,0x49,0x49,0x36,0x3E
	.DB  0x41,0x41,0x41,0x22,0x7F,0x41,0x41,0x22
	.DB  0x1C,0x7F,0x49,0x49,0x49,0x41,0x7F,0x9
	.DB  0x9,0x9,0x1,0x3E,0x41,0x49,0x49,0x7A
	.DB  0x7F,0x8,0x8,0x8,0x7F,0x0,0x41,0x7F
	.DB  0x41,0x0,0x20,0x40,0x41,0x3F,0x1,0x7F
	.DB  0x8,0x14,0x22,0x41,0x7F,0x40,0x40,0x40
	.DB  0x40,0x7F,0x2,0xC,0x2,0x7F,0x7F,0x4
	.DB  0x8,0x10,0x7F,0x3E,0x41,0x41,0x41,0x3E
	.DB  0x7F,0x9,0x9,0x9,0x6,0x3E,0x41,0x51
	.DB  0x21,0x5E,0x7F,0x9,0x19,0x29,0x46,0x26
	.DB  0x49,0x49,0x49,0x32,0x1,0x1,0x7F,0x1
	.DB  0x1,0x3F,0x40,0x40,0x40,0x3F,0x1F,0x20
	.DB  0x40,0x20,0x1F,0x3F,0x40,0x38,0x40,0x3F
	.DB  0x63,0x14,0x8,0x14,0x63,0x7,0x8,0x70
	.DB  0x8,0x7,0x61,0x51,0x49,0x45,0x43,0x0
	.DB  0x7F,0x41,0x41,0x0,0x2,0x4,0x8,0x10
	.DB  0x20,0x0,0x41,0x41,0x7F,0x0,0x4,0x2
	.DB  0x1,0x2,0x4,0x40,0x40,0x40,0x40,0x40
	.DB  0x0,0x1,0x2,0x4,0x0,0x20,0x54,0x54
	.DB  0x54,0x78,0x7F,0x48,0x44,0x44,0x38,0x38
	.DB  0x44,0x44,0x44,0x20,0x38,0x44,0x44,0x48
	.DB  0x7F,0x38,0x54,0x54,0x54,0x18,0x8,0x7E
	.DB  0x9,0x1,0x2,0xC,0x52,0x52,0x52,0x3E
	.DB  0x7F,0x8,0x4,0x4,0x78,0x0,0x4,0x7D
	.DB  0x0,0x0,0x20,0x40,0x44,0x3D,0x0,0x7F
	.DB  0x10,0x28,0x44,0x0,0x0,0x41,0x7F,0x40
	.DB  0x0,0x7C,0x4,0x18,0x4,0x7C,0x7C,0x8
	.DB  0x4,0x4,0x78,0x38,0x44,0x44,0x44,0x38
	.DB  0x7C,0x14,0x14,0x14,0x8,0x8,0x14,0x14
	.DB  0x18,0x7C,0x7C,0x8,0x4,0x4,0x8,0x48
	.DB  0x54,0x54,0x54,0x20,0x4,0x3F,0x44,0x40
	.DB  0x20,0x3C,0x40,0x40,0x20,0x7C,0x1C,0x20
	.DB  0x40,0x20,0x1C,0x3C,0x40,0x30,0x40,0x3C
	.DB  0x44,0x28,0x10,0x28,0x44,0xC,0x50,0x50
	.DB  0x50,0x3C,0x44,0x64,0x54,0x4C,0x44,0x0
	.DB  0x8,0x36,0x41,0x0,0x0,0x0,0x77,0x0
	.DB  0x0,0x0,0x41,0x36,0x8,0x0,0x8,0x4
	.DB  0x8,0x10,0x8
_screen1:
	.DB  0x0,0x0,0x0,0x0,0x0,0x0,0x0,0x0
	.DB  0x0,0x0,0x0,0x0,0xC0,0x0,0x0,0x0
	.DB  0x0,0x0,0x0,0xFF,0xFF,0x80,0x0,0x0
	.DB  0x0,0x0,0x7,0xFF,0xFF,0xF0,0x0,0x0
	.DB  0x0,0x0,0x1F,0xF0,0x1,0xFC,0x0,0x0
	.DB  0x0,0x0,0x7F,0x80,0x0,0x3F,0x0,0x0
	.DB  0x0,0x0,0xFC,0x0,0x0,0x7,0x80,0x0
	.DB  0x0,0x1,0xF0,0x0,0x0,0x1,0xC0,0x0
	.DB  0x0,0x7,0xE0,0x0,0x0,0x0,0x70,0x0
	.DB  0x0,0xF,0xC0,0x0,0x0,0x0,0x38,0x0
	.DB  0x0,0x1F,0x0,0x0,0x0,0x0,0xC,0x0
	.DB  0x0,0x3E,0x0,0x0,0x0,0x0,0x6,0x0
	.DB  0x0,0x7C,0x0,0x0,0x0,0x0,0x2,0x0
	.DB  0x0,0x78,0x0,0x0,0x0,0x0,0x1,0x0
	.DB  0x0,0xF0,0x0,0x0,0x0,0x0,0x0,0x80
	.DB  0x1,0xE0,0x0,0x0,0x0,0x0,0x0,0xC0
	.DB  0x1,0xE0,0x3,0x80,0x0,0x0,0x0,0x40
	.DB  0x3,0xC0,0x7,0x80,0x7E,0x0,0x0,0x60
	.DB  0x3,0x80,0xF,0x0,0x7F,0x80,0x0,0x20
	.DB  0x7,0x80,0x1E,0x0,0x1F,0xC0,0x0,0x30
	.DB  0x7,0x0,0x1C,0x0,0xF,0xE0,0x0,0x10
	.DB  0x7,0x0,0x3C,0x0,0x7,0xE0,0x0,0x10
	.DB  0xF,0x0,0x38,0x0,0x7,0xE0,0x0,0x8
	.DB  0xE,0x0,0x78,0x0,0xF,0xE0,0x0,0x8
	.DB  0xE,0x0,0x78,0x0,0x1F,0xC0,0x0,0x8
	.DB  0x1E,0x0,0x78,0x0,0x7F,0x80,0x0,0x8
	.DB  0x1E,0x0,0xF0,0x0,0x7F,0x0,0x0,0xC
	.DB  0x1E,0x0,0xF0,0x0,0x0,0x0,0x0,0x4
	.DB  0x1E,0x0,0xF0,0x0,0x0,0x0,0x0,0x4
	.DB  0x1C,0x0,0xF0,0x0,0x0,0x0,0x0,0x4
	.DB  0x1C,0x0,0xF0,0x0,0x0,0x0,0x0,0x4
	.DB  0x1C,0x0,0xF0,0x0,0x0,0x0,0x0,0x4
	.DB  0x1C,0x0,0xF0,0x0,0x0,0x0,0x0,0x4
	.DB  0x1E,0x0,0xF0,0x0,0x0,0x0,0x0,0x4
	.DB  0x1E,0x0,0xF0,0x0,0x0,0x0,0x0,0x4
	.DB  0x1E,0x0,0xF0,0x0,0x7F,0x0,0x0,0xC
	.DB  0x1E,0x0,0x78,0x0,0x7F,0xC0,0x0,0x8
	.DB  0xE,0x0,0x78,0x0,0x1F,0xE0,0x0,0x8
	.DB  0xE,0x0,0x78,0x0,0xF,0xE0,0x0,0x8
	.DB  0xF,0x0,0x3C,0x0,0x7,0xE0,0x0,0x8
	.DB  0x7,0x0,0x3C,0x0,0x7,0xE0,0x0,0x10
	.DB  0x7,0x80,0x1E,0x0,0xF,0xE0,0x0,0x10
	.DB  0x7,0x80,0xE,0x0,0x1F,0xC0,0x0,0x30
	.DB  0x3,0x80,0x7,0x0,0x7F,0x80,0x0,0x20
	.DB  0x3,0xC0,0x3,0x80,0x7E,0x0,0x0,0x60
	.DB  0x1,0xE0,0x1,0x80,0x0,0x0,0x0,0x40
	.DB  0x1,0xE0,0x0,0x0,0x0,0x0,0x0,0xC0
	.DB  0x0,0xF0,0x0,0x0,0x0,0x0,0x0,0x80
	.DB  0x0,0x78,0x0,0x0,0x0,0x0,0x1,0x0
	.DB  0x0,0x7C,0x0,0x0,0x0,0x0,0x2,0x0
	.DB  0x0,0x3E,0x0,0x0,0x0,0x0,0x6,0x0
	.DB  0x0,0x1F,0x0,0x0,0x0,0x0,0xC,0x0
	.DB  0x0,0xF,0x80,0x0,0x0,0x0,0x38,0x0
	.DB  0x0,0x7,0xE0,0x0,0x0,0x0,0x70,0x0
	.DB  0x0,0x1,0xF0,0x0,0x0,0x1,0xC0,0x0
	.DB  0x0,0x0,0xFC,0x0,0x0,0x7,0x80,0x0
	.DB  0x0,0x0,0x3F,0x0,0x0,0x1E,0x0,0x0
	.DB  0x0,0x0,0x1F,0xF0,0x1,0xFC,0x0,0x0
	.DB  0x0,0x0,0x3,0xFF,0xFF,0xE0,0x0,0x0
	.DB  0x0,0x0,0x0,0xFF,0xFF,0x0,0x0,0x0
	.DB  0x0,0x0,0x0,0x3,0xE0,0x0,0x0,0x0
	.DB  0x0,0x0,0x0,0x0,0x0,0x0,0x0,0x0
	.DB  0x0,0x0,0x0,0x0,0x0,0x0,0x0,0x0
	.DB  0x0,0x0,0x0,0x0,0x0,0x0,0x0,0x0
	.DB  0x0,0x0,0x0,0x0,0x0,0x0,0x0,0x0
	.DB  0x0,0x0,0x0,0x0,0x0,0x0,0x0,0x0
	.DB  0x0,0x0,0x0,0x0,0x0,0x0,0x0,0x0
	.DB  0x0,0x0,0x0,0x0,0x0,0x0,0x0,0x0
	.DB  0x0,0x0,0x0,0x0,0x0,0x0,0x0,0x0
	.DB  0x0,0x0,0x0,0x0,0x0,0x0,0x0,0x0
	.DB  0x0,0x0,0x0,0x0,0x0,0x0,0x0,0x0
	.DB  0x0,0x0,0x0,0x0,0x0,0x0,0x0,0x0
	.DB  0x0,0x0,0x0,0x0,0x0,0x0,0x0,0x0
	.DB  0x0,0x0,0x0,0x0,0x0,0x0,0x0,0x0
	.DB  0x0,0x0,0x0,0x0,0x0,0x0,0x0,0x0
	.DB  0x0,0x0,0x0,0x0,0x0,0x0,0x0,0x0
	.DB  0x0,0x0,0x0,0x0,0x0,0x0,0x0,0x0
	.DB  0x0,0x0,0x0,0x0,0x0,0x0,0x0,0x0
	.DB  0x0,0x0,0x0,0x0,0x0,0x0,0x0,0x0
	.DB  0x0,0x0,0x0,0x0,0x0,0x0,0x0,0x0
	.DB  0x0,0x0,0x0,0x0,0x0,0x0,0x0,0x0
	.DB  0x0,0x0,0x0,0x0,0x0,0x0,0x0,0x0
	.DB  0x0,0x0,0x0,0x0,0x0,0x0,0x0,0x0
	.DB  0x0,0x0,0x0,0x0,0x0,0x0,0x0,0x0
	.DB  0x0,0x0,0x0,0x0,0x0,0x0,0x0,0x0
	.DB  0x0,0x0,0x0,0x0,0x0,0x0,0x0,0x0
	.DB  0x0,0x0,0x0,0x0,0x0,0x0,0x0,0x0
	.DB  0x0,0x0,0x0,0x0,0x0,0x0,0x0,0x0
	.DB  0x0,0x0,0x0,0x0,0x0,0x0,0x0,0x0
	.DB  0x0,0x0,0x0,0x0,0x0,0x0,0x0,0x0
	.DB  0x0,0x0,0x0,0x0,0x0,0x0,0x0,0x0
	.DB  0x0,0x0,0x0,0x0,0x0,0x0,0x0,0x0
	.DB  0x0,0x0,0x0,0x0,0x0,0x0,0x0,0x0
	.DB  0x0,0x0,0x0,0x0,0x0,0x0,0x0,0x0
	.DB  0x0,0x0,0x0,0x0,0x0,0x0,0x0,0x0
	.DB  0x0,0x0,0x0,0x0,0x0,0x0,0x0,0x0
	.DB  0x0,0x0,0x0,0x0,0x0,0x0,0x0,0x0
	.DB  0x0,0x0,0x0,0x0,0x0,0x0,0x0,0x0
	.DB  0x0,0x0,0x0,0x0,0x0,0x0,0x0,0x0
	.DB  0x0,0x0,0x0,0x0,0x0,0x0,0x0,0x0
	.DB  0x0,0x0,0x0,0x0,0x0,0x0,0x0,0x0
	.DB  0x0,0x0,0x0,0x0,0x0,0x0,0x0,0x0
	.DB  0x0,0x0,0x0,0x0,0x0,0x0,0x0,0x0
	.DB  0x0,0x0,0x0,0x0,0x0,0x0,0x0,0x0
	.DB  0x0,0x0,0x0,0x0,0x0,0x0,0x0,0x0
	.DB  0x0,0x0,0x0,0x0,0x0,0x0,0x0,0x0
	.DB  0x0,0x0,0x0,0x0,0x0,0x0,0x0,0x0
	.DB  0x0,0x0,0x0,0x0,0x0,0x0,0x0,0x0
	.DB  0x0,0x0,0x0,0x0,0x0,0x0,0x0,0x0
	.DB  0x0,0x0,0x0,0x0,0x0,0x0,0x0,0x0
	.DB  0x0,0x0,0x0,0x0,0x0,0x0,0x0,0x0
	.DB  0x0,0x0,0x0,0x0,0x0,0x0,0x0,0x0
	.DB  0x0,0x0,0x0,0x0,0x0,0x0,0x0,0x0
	.DB  0x0,0x0,0x0,0x0,0x0,0x0,0x0,0x0
	.DB  0x0,0x0,0x0,0x0,0x0,0x0,0x0,0x0
	.DB  0x0,0x0,0x0,0x0,0x0,0x0,0x0,0x0
	.DB  0x0,0x0,0x0,0x0,0x0,0x0,0x0,0x0
	.DB  0x0,0x0,0x0,0x0,0x0,0x0,0x0,0x0
	.DB  0x0,0x0,0x0,0x0,0x0,0x0,0x0,0x0
	.DB  0x0,0x0,0x0,0x0,0x0,0x0,0x0,0x0
	.DB  0x0,0x0,0x0,0x0,0x0,0x0,0x0,0x0
	.DB  0x0,0x0,0x0,0x0,0x0,0x0,0x0,0x0
	.DB  0x0,0x0,0x0,0x0,0x0,0x0,0x0,0x0
	.DB  0x0,0x0,0x0,0x0,0x0,0x0,0x0,0x0
	.DB  0x0,0x0,0x0,0x0,0x0,0x0,0x0,0x0
	.DB  0x0,0x0,0x0,0x0,0x0,0x0,0x0,0x0
	.DB  0x0,0x0,0x0,0x0,0x0,0x0,0x0,0x0
	.DB  0x0,0x0,0x0,0x0,0x0,0x0,0x0,0x0
_screen2:
	.DB  0x0,0x0,0x0,0x0,0x0,0x0,0x0,0x0
	.DB  0x0,0x0,0x0,0x3F,0xFC,0x0,0x0,0x0
	.DB  0x0,0x0,0x3,0xFF,0xFF,0xC0,0x0,0x0
	.DB  0x0,0x0,0xF,0xFC,0x1F,0xF0,0x0,0x0
	.DB  0x0,0x0,0x3F,0x80,0x0,0x3C,0x0,0x0
	.DB  0x0,0x0,0xFE,0x0,0x0,0xF,0x0,0x0
	.DB  0x0,0x1,0xF0,0x0,0x0,0x1,0x80,0x0
	.DB  0x0,0x7,0xE0,0x0,0x0,0x0,0xC0,0x0
	.DB  0x0,0xF,0x80,0x0,0x0,0x0,0x20,0x0
	.DB  0x0,0x1F,0x0,0x0,0x0,0x0,0x10,0x0
	.DB  0x0,0x3C,0x0,0x0,0x0,0x0,0x8,0x0
	.DB  0x0,0x3C,0x0,0x0,0x0,0x0,0x4,0x0
	.DB  0x0,0x70,0x0,0x0,0x0,0x0,0x2,0x0
	.DB  0x0,0xF0,0x0,0x0,0x0,0x0,0x0,0x0
	.DB  0x1,0xE0,0x0,0x0,0x0,0x0,0x0,0x0
	.DB  0x1,0xC0,0x3,0x80,0x0,0x0,0x0,0x80
	.DB  0x3,0xC0,0x7,0x80,0x0,0x0,0x0,0x0
	.DB  0x3,0x80,0x7,0x80,0xF,0x0,0x0,0x40
	.DB  0x7,0x0,0x7,0x80,0x3F,0xC0,0x0,0x0
	.DB  0x7,0x0,0x7,0x80,0x7F,0xE0,0x0,0x20
	.DB  0xF,0x0,0x7,0x80,0x7F,0xE0,0x0,0x0
	.DB  0xF,0x0,0x7,0x80,0x7F,0xE0,0x0,0x10
	.DB  0xE,0x0,0x7,0x80,0x3F,0xC0,0x0,0x10
	.DB  0xE,0x0,0x7,0x80,0xF,0x0,0x0,0x10
	.DB  0x1E,0x0,0x7,0x80,0x0,0x0,0x0,0x0
	.DB  0x1C,0x0,0x7,0x80,0x0,0x0,0x0,0x0
	.DB  0x1C,0x0,0x7,0x80,0x0,0x0,0x0,0x8
	.DB  0x1C,0x0,0x7,0x80,0x0,0x0,0x0,0x8
	.DB  0x1C,0x0,0x7,0x80,0x0,0x0,0x0,0x8
	.DB  0x1C,0x0,0x7,0x80,0x0,0x0,0x0,0x8
	.DB  0x1C,0x0,0x7,0x80,0x0,0x0,0x0,0x8
	.DB  0x1C,0x0,0x7,0x80,0x0,0x0,0x0,0x8
	.DB  0x1C,0x0,0x7,0x80,0x0,0x0,0x0,0x8
	.DB  0x1C,0x0,0x7,0x80,0x0,0x0,0x0,0x8
	.DB  0x1C,0x0,0x7,0x80,0x0,0x0,0x0,0x0
	.DB  0x1C,0x0,0x7,0x80,0x0,0x0,0x0,0x10
	.DB  0xE,0x0,0x7,0x80,0x1F,0xC0,0x0,0x10
	.DB  0xE,0x0,0x7,0x80,0x7F,0xE0,0x0,0x10
	.DB  0xF,0x0,0x7,0x80,0x7F,0xE0,0x0,0x0
	.DB  0x7,0x0,0x7,0x80,0x7F,0xE0,0x0,0x20
	.DB  0x7,0x0,0x7,0x80,0x3F,0xC0,0x0,0x20
	.DB  0x7,0x80,0x7,0x80,0x1F,0x80,0x0,0x40
	.DB  0x3,0x80,0x7,0x80,0x0,0x0,0x0,0x40
	.DB  0x3,0xC0,0x7,0x80,0x0,0x0,0x0,0x0
	.DB  0x1,0xC0,0x3,0x0,0x0,0x0,0x0,0x0
	.DB  0x0,0xE0,0x0,0x0,0x0,0x0,0x0,0x0
	.DB  0x0,0xF0,0x0,0x0,0x0,0x0,0x0,0x0
	.DB  0x0,0x78,0x0,0x0,0x0,0x0,0x0,0x0
	.DB  0x0,0x3C,0x0,0x0,0x0,0x0,0x4,0x0
	.DB  0x0,0x1E,0x0,0x0,0x0,0x0,0x8,0x0
	.DB  0x0,0xF,0x0,0x0,0x0,0x0,0x10,0x0
	.DB  0x0,0x7,0xC0,0x0,0x0,0x0,0x60,0x0
	.DB  0x0,0x3,0xE0,0x0,0x0,0x0,0x80,0x0
	.DB  0x0,0x0,0xF8,0x0,0x0,0x3,0x0,0x0
	.DB  0x0,0x0,0x7E,0x0,0x0,0xE,0x0,0x0
	.DB  0x0,0x0,0x1F,0xE0,0x0,0xF8,0x0,0x0
	.DB  0x0,0x0,0x7,0xFF,0xFF,0xE0,0x0,0x0
	.DB  0x0,0x0,0x0,0xFF,0xFF,0x0,0x0,0x0
	.DB  0x0,0x0,0x0,0x7,0xC0,0x0,0x0,0x0
	.DB  0x0,0x0,0x0,0x0,0x0,0x0,0x0,0x0
	.DB  0x0,0x0,0x0,0x0,0x0,0x0,0x0,0x0
	.DB  0x0,0x0,0x0,0x0,0x0,0x0,0x0,0x0
	.DB  0x0,0x0,0x0,0x0,0x0,0x0,0x0,0x0
	.DB  0x0,0x0,0x0,0x0,0x0,0x0,0x0,0x0
	.DB  0x0,0x0,0x0,0x0,0x0,0x0,0x0,0x0
	.DB  0x0,0x0,0x0,0x0,0x0,0x0,0x0,0x0
	.DB  0x0,0x0,0x0,0x0,0x0,0x0,0x0,0x0
	.DB  0x0,0x0,0x0,0x0,0x0,0x0,0x0,0x0
	.DB  0x0,0x0,0x0,0x0,0x0,0x0,0x0,0x0
	.DB  0x0,0x0,0x0,0x0,0x0,0x0,0x0,0x0
	.DB  0x0,0x0,0x0,0x0,0x0,0x0,0x0,0x0
	.DB  0x0,0x0,0x0,0x0,0x0,0x0,0x0,0x0
	.DB  0x0,0x0,0x0,0x0,0x0,0x0,0x0,0x0
	.DB  0x0,0x0,0x0,0x0,0x0,0x0,0x0,0x0
	.DB  0x0,0x0,0x0,0x0,0x0,0x0,0x0,0x0
	.DB  0x0,0x0,0x0,0x0,0x0,0x0,0x0,0x0
	.DB  0x0,0x0,0x0,0x0,0x0,0x0,0x0,0x0
	.DB  0x0,0x0,0x0,0x0,0x0,0x0,0x0,0x0
	.DB  0x0,0x0,0x0,0x0,0x0,0x0,0x0,0x0
	.DB  0x0,0x0,0x0,0x0,0x0,0x0,0x0,0x0
	.DB  0x0,0x0,0x0,0x0,0x0,0x0,0x0,0x0
	.DB  0x0,0x0,0x0,0x0,0x0,0x0,0x0,0x0
	.DB  0x0,0x0,0x0,0x0,0x0,0x0,0x0,0x0
	.DB  0x0,0x0,0x0,0x0,0x0,0x0,0x0,0x0
	.DB  0x0,0x0,0x0,0x0,0x0,0x0,0x0,0x0
	.DB  0x0,0x0,0x0,0x0,0x0,0x0,0x0,0x0
	.DB  0x0,0x0,0x0,0x0,0x0,0x0,0x0,0x0
	.DB  0x0,0x0,0x0,0x0,0x0,0x0,0x0,0x0
	.DB  0x0,0x0,0x0,0x0,0x0,0x0,0x0,0x0
	.DB  0x0,0x0,0x0,0x0,0x0,0x0,0x0,0x0
	.DB  0x0,0x0,0x0,0x0,0x0,0x0,0x0,0x0
	.DB  0x0,0x0,0x0,0x0,0x0,0x0,0x0,0x0
	.DB  0x0,0x0,0x0,0x0,0x0,0x0,0x0,0x0
	.DB  0x0,0x0,0x0,0x0,0x0,0x0,0x0,0x0
	.DB  0x0,0x0,0x0,0x0,0x0,0x0,0x0,0x0
	.DB  0x0,0x0,0x0,0x0,0x0,0x0,0x0,0x0
	.DB  0x0,0x0,0x0,0x0,0x0,0x0,0x0,0x0
	.DB  0x0,0x0,0x0,0x0,0x0,0x0,0x0,0x0
	.DB  0x0,0x0,0x0,0x0,0x0,0x0,0x0,0x0
	.DB  0x0,0x0,0x0,0x0,0x0,0x0,0x0,0x0
	.DB  0x0,0x0,0x0,0x0,0x0,0x0,0x0,0x0
	.DB  0x0,0x0,0x0,0x0,0x0,0x0,0x0,0x0
	.DB  0x0,0x0,0x0,0x0,0x0,0x0,0x0,0x0
	.DB  0x0,0x0,0x0,0x0,0x0,0x0,0x0,0x0
	.DB  0x0,0x0,0x0,0x0,0x0,0x0,0x0,0x0
	.DB  0x0,0x0,0x0,0x0,0x0,0x0,0x0,0x0
	.DB  0x0,0x0,0x0,0x0,0x0,0x0,0x0,0x0
	.DB  0x0,0x0,0x0,0x0,0x0,0x0,0x0,0x0
	.DB  0x0,0x0,0x0,0x0,0x0,0x0,0x0,0x0
	.DB  0x0,0x0,0x0,0x0,0x0,0x0,0x0,0x0
	.DB  0x0,0x0,0x0,0x0,0x0,0x0,0x0,0x0
	.DB  0x0,0x0,0x0,0x0,0x0,0x0,0x0,0x0
	.DB  0x0,0x0,0x0,0x0,0x0,0x0,0x0,0x0
	.DB  0x0,0x0,0x0,0x0,0x0,0x0,0x0,0x0
	.DB  0x0,0x0,0x0,0x0,0x0,0x0,0x0,0x0
	.DB  0x0,0x0,0x0,0x0,0x0,0x0,0x0,0x0
	.DB  0x0,0x0,0x0,0x0,0x0,0x0,0x0,0x0
	.DB  0x0,0x0,0x0,0x0,0x0,0x0,0x0,0x0
	.DB  0x0,0x0,0x0,0x0,0x0,0x0,0x0,0x0
	.DB  0x0,0x0,0x0,0x0,0x0,0x0,0x0,0x0
	.DB  0x0,0x0,0x0,0x0,0x0,0x0,0x0,0x0
	.DB  0x0,0x0,0x0,0x0,0x0,0x0,0x0,0x0
	.DB  0x0,0x0,0x0,0x0,0x0,0x0,0x0,0x0
	.DB  0x0,0x0,0x0,0x0,0x0,0x0,0x0,0x0
	.DB  0x0,0x0,0x0,0x0,0x0,0x0,0x0,0x0
	.DB  0x0,0x0,0x0,0x0,0x0,0x0,0x0,0x0
	.DB  0x0,0x0,0x0,0x0,0x0,0x0,0x0,0x0
	.DB  0x0,0x0,0x0,0x0,0x0,0x0,0x0,0x0
_screen3:
	.DB  0x0,0x0,0x0,0x0,0x0,0x0,0x0,0x0
	.DB  0x0,0x0,0x0,0x3,0x0,0x0,0x0,0x0
	.DB  0x0,0x0,0x1,0xFF,0xFE,0x0,0x0,0x0
	.DB  0x0,0x0,0xF,0xFF,0xFF,0xC0,0x0,0x0
	.DB  0x0,0x0,0x3F,0xC0,0x1,0xF0,0x0,0x0
	.DB  0x0,0x0,0xFE,0x0,0x0,0x3C,0x0,0x0
	.DB  0x0,0x1,0xF0,0x0,0x0,0x6,0x0,0x0
	.DB  0x0,0x7,0xE0,0x0,0x0,0x1,0x80,0x0
	.DB  0x0,0xF,0x80,0x0,0x0,0x0,0x40,0x0
	.DB  0x0,0x1F,0x0,0x0,0x0,0x0,0x20,0x0
	.DB  0x0,0x3C,0x0,0x0,0x0,0x0,0x10,0x0
	.DB  0x0,0x78,0x0,0x0,0x0,0x0,0x8,0x0
	.DB  0x0,0xF0,0x0,0x0,0x0,0x0,0x4,0x0
	.DB  0x1,0xE0,0x0,0x0,0x0,0x0,0x0,0x0
	.DB  0x1,0xC0,0x0,0x0,0x0,0x0,0x0,0x0
	.DB  0x3,0xC0,0x0,0x0,0x18,0x0,0x0,0x0
	.DB  0x7,0x80,0x0,0x0,0x18,0x0,0x0,0x0
	.DB  0x7,0x0,0x0,0x0,0x18,0x0,0x0,0x0
	.DB  0xF,0x0,0x0,0x0,0x38,0x0,0x0,0x0
	.DB  0xF,0x0,0x0,0x30,0x38,0x0,0x0,0x40
	.DB  0xE,0x0,0x1,0xFC,0x30,0x0,0x0,0x0
	.DB  0x1E,0x0,0x3,0xFE,0x70,0x0,0x0,0x20
	.DB  0x1C,0x8,0x3,0xFE,0x60,0x0,0x0,0x0
	.DB  0x1C,0xE,0x3,0xFE,0xE0,0x0,0x0,0x0
	.DB  0x3C,0x7,0x1,0xFD,0xC0,0x0,0x0,0x0
	.DB  0x3C,0x7,0x80,0xFB,0x80,0x0,0x0,0x10
	.DB  0x38,0x3,0xC0,0x3,0x0,0x0,0x0,0x10
	.DB  0x38,0x3,0xC0,0x0,0x0,0x0,0x0,0x0
	.DB  0x38,0x3,0xC0,0x0,0x0,0x0,0x0,0x0
	.DB  0x38,0x3,0xE0,0x0,0x0,0x0,0x0,0x0
	.DB  0x38,0x3,0xE0,0x0,0x0,0x0,0x0,0x0
	.DB  0x38,0x3,0xE0,0x0,0x0,0x0,0x0,0x0
	.DB  0x38,0x3,0xC0,0x0,0x0,0x0,0x0,0x0
	.DB  0x38,0x3,0xC0,0x0,0x0,0x0,0x0,0x0
	.DB  0x38,0x7,0x80,0x2,0x0,0x0,0x0,0x10
	.DB  0x3C,0x7,0x80,0xFB,0x80,0x0,0x0,0x10
	.DB  0x1C,0xF,0x1,0xFF,0xC0,0x0,0x0,0x0
	.DB  0x1C,0xC,0x3,0xFE,0xE0,0x0,0x0,0x0
	.DB  0x1C,0x0,0x3,0xFE,0xE0,0x0,0x0,0x0
	.DB  0x1E,0x0,0x3,0xFE,0x70,0x0,0x0,0x20
	.DB  0xE,0x0,0x1,0xFC,0x30,0x0,0x0,0x0
	.DB  0xE,0x0,0x0,0x30,0x38,0x0,0x0,0x40
	.DB  0xF,0x0,0x0,0x0,0x38,0x0,0x0,0x0
	.DB  0x7,0x0,0x0,0x0,0x18,0x0,0x0,0x0
	.DB  0x7,0x80,0x0,0x0,0x18,0x0,0x0,0x0
	.DB  0x3,0xC0,0x0,0x0,0x18,0x0,0x0,0x0
	.DB  0x1,0xC0,0x0,0x0,0x0,0x0,0x0,0x0
	.DB  0x1,0xE0,0x0,0x0,0x0,0x0,0x0,0x0
	.DB  0x0,0xF0,0x0,0x0,0x0,0x0,0x0,0x0
	.DB  0x0,0x78,0x0,0x0,0x0,0x0,0x8,0x0
	.DB  0x0,0x3C,0x0,0x0,0x0,0x0,0x10,0x0
	.DB  0x0,0x1E,0x0,0x0,0x0,0x0,0x20,0x0
	.DB  0x0,0xF,0x80,0x0,0x0,0x0,0x40,0x0
	.DB  0x0,0x7,0xC0,0x0,0x0,0x1,0x80,0x0
	.DB  0x0,0x1,0xF0,0x0,0x0,0x2,0x0,0x0
	.DB  0x0,0x0,0xFE,0x0,0x0,0x1C,0x0,0x0
	.DB  0x0,0x0,0x3F,0x80,0x0,0xF0,0x0,0x0
	.DB  0x0,0x0,0xF,0xFF,0xFF,0xC0,0x0,0x0
	.DB  0x0,0x0,0x1,0xFF,0xFE,0x0,0x0,0x0
	.DB  0x0,0x0,0x0,0x7,0x80,0x0,0x0,0x0
	.DB  0x0,0x0,0x0,0x0,0x0,0x0,0x0,0x0
	.DB  0x0,0x0,0x0,0x0,0x0,0x0,0x0,0x0
	.DB  0x0,0x0,0x0,0x0,0x0,0x0,0x0,0x0
	.DB  0x0,0x0,0x0,0x0,0x0,0x0,0x0,0x0
	.DB  0x0,0x0,0x0,0x0,0x0,0x0,0x0,0x0
	.DB  0x0,0x0,0x0,0x0,0x0,0x0,0x0,0x0
	.DB  0x0,0x0,0x0,0x0,0x0,0x0,0x0,0x0
	.DB  0x0,0x0,0x0,0x0,0x0,0x0,0x0,0x0
	.DB  0x0,0x0,0x0,0x0,0x0,0x0,0x0,0x0
	.DB  0x0,0x0,0x0,0x0,0x0,0x0,0x0,0x0
	.DB  0x0,0x0,0x0,0x0,0x0,0x0,0x0,0x0
	.DB  0x0,0x0,0x0,0x0,0x0,0x0,0x0,0x0
	.DB  0x0,0x0,0x0,0x0,0x0,0x0,0x0,0x0
	.DB  0x0,0x0,0x0,0x0,0x0,0x0,0x0,0x0
	.DB  0x0,0x0,0x0,0x0,0x0,0x0,0x0,0x0
	.DB  0x0,0x0,0x0,0x0,0x0,0x0,0x0,0x0
	.DB  0x0,0x0,0x0,0x0,0x0,0x0,0x0,0x0
	.DB  0x0,0x0,0x0,0x0,0x0,0x0,0x0,0x0
	.DB  0x0,0x0,0x0,0x0,0x0,0x0,0x0,0x0
	.DB  0x0,0x0,0x0,0x0,0x0,0x0,0x0,0x0
	.DB  0x0,0x0,0x0,0x0,0x0,0x0,0x0,0x0
	.DB  0x0,0x0,0x0,0x0,0x0,0x0,0x0,0x0
	.DB  0x0,0x0,0x0,0x0,0x0,0x0,0x0,0x0
	.DB  0x0,0x0,0x0,0x0,0x0,0x0,0x0,0x0
	.DB  0x0,0x0,0x0,0x0,0x0,0x0,0x0,0x0
	.DB  0x0,0x0,0x0,0x0,0x0,0x0,0x0,0x0
	.DB  0x0,0x0,0x0,0x0,0x0,0x0,0x0,0x0
	.DB  0x0,0x0,0x0,0x0,0x0,0x0,0x0,0x0
	.DB  0x0,0x0,0x0,0x0,0x0,0x0,0x0,0x0
	.DB  0x0,0x0,0x0,0x0,0x0,0x0,0x0,0x0
	.DB  0x0,0x0,0x0,0x0,0x0,0x0,0x0,0x0
	.DB  0x0,0x0,0x0,0x0,0x0,0x0,0x0,0x0
	.DB  0x0,0x0,0x0,0x0,0x0,0x0,0x0,0x0
	.DB  0x0,0x0,0x0,0x0,0x0,0x0,0x0,0x0
	.DB  0x0,0x0,0x0,0x0,0x0,0x0,0x0,0x0
	.DB  0x0,0x0,0x0,0x0,0x0,0x0,0x0,0x0
	.DB  0x0,0x0,0x0,0x0,0x0,0x0,0x0,0x0
	.DB  0x0,0x0,0x0,0x0,0x0,0x0,0x0,0x0
	.DB  0x0,0x0,0x0,0x0,0x0,0x0,0x0,0x0
	.DB  0x0,0x0,0x0,0x0,0x0,0x0,0x0,0x0
	.DB  0x0,0x0,0x0,0x0,0x0,0x0,0x0,0x0
	.DB  0x0,0x0,0x0,0x0,0x0,0x0,0x0,0x0
	.DB  0x0,0x0,0x0,0x0,0x0,0x0,0x0,0x0
	.DB  0x0,0x0,0x0,0x0,0x0,0x0,0x0,0x0
	.DB  0x0,0x0,0x0,0x0,0x0,0x0,0x0,0x0
	.DB  0x0,0x0,0x0,0x0,0x0,0x0,0x0,0x0
	.DB  0x0,0x0,0x0,0x0,0x0,0x0,0x0,0x0
	.DB  0x0,0x0,0x0,0x0,0x0,0x0,0x0,0x0
	.DB  0x0,0x0,0x0,0x0,0x0,0x0,0x0,0x0
	.DB  0x0,0x0,0x0,0x0,0x0,0x0,0x0,0x0
	.DB  0x0,0x0,0x0,0x0,0x0,0x0,0x0,0x0
	.DB  0x0,0x0,0x0,0x0,0x0,0x0,0x0,0x0
	.DB  0x0,0x0,0x0,0x0,0x0,0x0,0x0,0x0
	.DB  0x0,0x0,0x0,0x0,0x0,0x0,0x0,0x0
	.DB  0x0,0x0,0x0,0x0,0x0,0x0,0x0,0x0
	.DB  0x0,0x0,0x0,0x0,0x0,0x0,0x0,0x0
	.DB  0x0,0x0,0x0,0x0,0x0,0x0,0x0,0x0
	.DB  0x0,0x0,0x0,0x0,0x0,0x0,0x0,0x0
	.DB  0x0,0x0,0x0,0x0,0x0,0x0,0x0,0x0
	.DB  0x0,0x0,0x0,0x0,0x0,0x0,0x0,0x0
	.DB  0x0,0x0,0x0,0x0,0x0,0x0,0x0,0x0
	.DB  0x0,0x0,0x0,0x0,0x0,0x0,0x0,0x0
	.DB  0x0,0x0,0x0,0x0,0x0,0x0,0x0,0x0
	.DB  0x0,0x0,0x0,0x0,0x0,0x0,0x0,0x0
	.DB  0x0,0x0,0x0,0x0,0x0,0x0,0x0,0x0
	.DB  0x0,0x0,0x0,0x0,0x0,0x0,0x0,0x0
	.DB  0x0,0x0,0x0,0x0,0x0,0x0,0x0,0x0
	.DB  0x0,0x0,0x0,0x0,0x0,0x0,0x0,0x0
_tbl10_G100:
	.DB  0x10,0x27,0xE8,0x3,0x64,0x0,0xA,0x0
	.DB  0x1,0x0
_tbl16_G100:
	.DB  0x0,0x10,0x0,0x1,0x10,0x0,0x1,0x0

;GLOBAL REGISTER VARIABLES INITIALIZATION
__REG_VARS:
	.DB  0x0,0x0,0x0,0x0
	.DB  0x0,0x0,0x0,0x0
	.DB  0x0,0x0

_0x3:
	.DB  0x79
_0x44:
	.DB  0x1
_0x0:
	.DB  0x47,0x72,0x65,0x65,0x6E,0x20,0x20,0x25
	.DB  0x64,0x20,0x73,0x65,0x63,0x0,0xD,0x0
	.DB  0x52,0x65,0x64,0x20,0x20,0x25,0x64,0x20
	.DB  0x73,0x65,0x63,0x0,0x25,0x32,0x64,0x0
	.DB  0x47,0x61,0x6A,0x61,0x6E,0x67,0x0,0x4C
	.DB  0x69,0x6D,0x69,0x74,0x20,0x36,0x30,0x4B
	.DB  0x6D,0x0,0x53,0x54,0x52,0x45,0x45,0x54
	.DB  0x0,0x2D,0x3E,0x53,0x69,0x6E,0x74,0x61
	.DB  0x6E,0x6A,0x69,0x6E,0x0,0x5E,0x44,0x6F
	.DB  0x6E,0x67,0x73,0x65,0x64,0x61,0x65,0x0
	.DB  0x3C,0x2D,0x48,0x61,0x6E,0x62,0x61,0x74
	.DB  0x64,0x61,0x65,0x0,0x4C,0x69,0x6D,0x69
	.DB  0x74,0x20,0x35,0x30,0x4B,0x6D,0x0,0x2D
	.DB  0x3E,0x44,0x6F,0x6E,0x67,0x73,0x65,0x64
	.DB  0x61,0x65,0x0,0x5E,0x48,0x61,0x6E,0x62
	.DB  0x61,0x74,0x64,0x61,0x65,0x0,0x3C,0x2D
	.DB  0x47,0x61,0x6A,0x61,0x6E,0x67,0x0,0x4C
	.DB  0x69,0x6D,0x69,0x74,0x20,0x38,0x30,0x4B
	.DB  0x6D,0x0,0x2D,0x3E,0x48,0x61,0x6E,0x62
	.DB  0x61,0x74,0x64,0x61,0x65,0x0,0x5E,0x47
	.DB  0x61,0x6A,0x61,0x6E,0x67,0x0,0x3C,0x2D
	.DB  0x53,0x69,0x6E,0x74,0x61,0x6E,0x6A,0x69
	.DB  0x6E,0x0,0x2D,0x3E,0x47,0x61,0x6A,0x61
	.DB  0x6E,0x67,0x0,0x5E,0x53,0x69,0x6E,0x74
	.DB  0x61,0x6E,0x6A,0x69,0x6E,0x0,0x3C,0x2D
	.DB  0x44,0x6F,0x6E,0x67,0x73,0x65,0x64,0x61
	.DB  0x65,0x0

__GLOBAL_INI_TBL:
	.DW  0x0A
	.DW  0x04
	.DW  __REG_VARS*2

	.DW  0x01
	.DW  _cnt1
	.DW  _0x3*2

	.DW  0x01
	.DW  _load
	.DW  _0x44*2

_0xFFFFFFFF:
	.DW  0

#define __GLOBAL_INI_TBL_PRESENT 1

__RESET:
	CLI
	CLR  R30
	OUT  EECR,R30

;INTERRUPT VECTORS ARE PLACED
;AT THE START OF FLASH
	LDI  R31,1
	OUT  MCUCR,R31
	OUT  MCUCR,R30
	STS  XMCRB,R30

;CLEAR R2-R14
	LDI  R24,(14-2)+1
	LDI  R26,2
	CLR  R27
__CLEAR_REG:
	ST   X+,R30
	DEC  R24
	BRNE __CLEAR_REG

;CLEAR SRAM
	LDI  R24,LOW(__CLEAR_SRAM_SIZE)
	LDI  R25,HIGH(__CLEAR_SRAM_SIZE)
	LDI  R26,LOW(__SRAM_START)
	LDI  R27,HIGH(__SRAM_START)
__CLEAR_SRAM:
	ST   X+,R30
	SBIW R24,1
	BRNE __CLEAR_SRAM

;GLOBAL VARIABLES INITIALIZATION
	LDI  R30,LOW(__GLOBAL_INI_TBL*2)
	LDI  R31,HIGH(__GLOBAL_INI_TBL*2)
__GLOBAL_INI_NEXT:
	LPM  R24,Z+
	LPM  R25,Z+
	SBIW R24,0
	BREQ __GLOBAL_INI_END
	LPM  R26,Z+
	LPM  R27,Z+
	LPM  R0,Z+
	LPM  R1,Z+
	MOVW R22,R30
	MOVW R30,R0
__GLOBAL_INI_LOOP:
	LPM  R0,Z+
	ST   X+,R0
	SBIW R24,1
	BRNE __GLOBAL_INI_LOOP
	MOVW R30,R22
	RJMP __GLOBAL_INI_NEXT
__GLOBAL_INI_END:

	OUT  RAMPZ,R24

;HARDWARE STACK POINTER INITIALIZATION
	LDI  R30,LOW(__SRAM_END-__HEAP_SIZE)
	OUT  SPL,R30
	LDI  R30,HIGH(__SRAM_END-__HEAP_SIZE)
	OUT  SPH,R30

;DATA STACK POINTER INITIALIZATION
	LDI  R28,LOW(__SRAM_START+__DSTACK_SIZE)
	LDI  R29,HIGH(__SRAM_START+__DSTACK_SIZE)

	JMP  _main

	.ESEG
	.ORG 0

	.DSEG
	.ORG 0x500

	.CSEG
;#include <mega128.h>
	#ifndef __SLEEP_DEFINED__
	#define __SLEEP_DEFINED__
	.EQU __se_bit=0x20
	.EQU __sm_mask=0x1C
	.EQU __sm_powerdown=0x10
	.EQU __sm_powersave=0x18
	.EQU __sm_standby=0x14
	.EQU __sm_ext_standby=0x1C
	.EQU __sm_adc_noise_red=0x08
	.SET power_ctrl_reg=mcucr
	#endif
;#include <delay.h>
;#include <io.h>
;#include <stdio.h>
;
;int time_loop = 0, led_count = 0, led_flag = 0, time_count = 0;
;char key4_flag = 0, key5_flag = 0, key6_flag = 0, key7_flag = 0;
;
;#include "Counter.c"
;#ifndef _Counter_
;#define _Counter_
;
;char cnt1 = 121;

	.DSEG
;char cnt2 = 0;
;
;
;#include "leddis.c"
;#ifndef _leddis_
;#define _leddis_
;
;
;char led_dis1[13] = {0,};
;char led_dis2[13] = {0,};
;int led_add[2][5] = {0,};
;int i, k, cnt = 0;
;
;void led_dis();
;
;void led_init(){
; 0000 0009 void led_init(){

	.CSEG
_led_init:
; .FSTART _led_init
;    for(k=1 ; k<13 ; k++) {
	LDI  R30,LOW(1)
	LDI  R31,HIGH(1)
	STS  _k,R30
	STS  _k+1,R31
_0x5:
	LDS  R26,_k
	LDS  R27,_k+1
	SBIW R26,13
	BRGE _0x6
;        led_dis1[k] = 0;
	CALL SUBOPT_0x0
	SUBI R30,LOW(-_led_dis1)
	SBCI R31,HIGH(-_led_dis1)
	LDI  R26,LOW(0)
	STD  Z+0,R26
;        led_dis2[k] = 0;
	CALL SUBOPT_0x0
	SUBI R30,LOW(-_led_dis2)
	SBCI R31,HIGH(-_led_dis2)
	LDI  R26,LOW(0)
	STD  Z+0,R26
;    }
	CALL SUBOPT_0x1
	RJMP _0x5
_0x6:
;}
	RET
; .FEND
;
;
;void led_change(char cnt1, char cnt2){
_led_change:
; .FSTART _led_change
;    led_init();
	ST   -Y,R26
;	cnt1 -> Y+1
;	cnt2 -> Y+0
	RCALL _led_init
;    if(cnt1 > 61){
	LDD  R26,Y+1
	CPI  R26,LOW(0x3E)
	BRLO _0x7
;    //printf("1");
;        led_dis1[6] = 1;
	CALL SUBOPT_0x2
;        led_dis1[7] = 1;
	__PUTB1MN _led_dis1,7
;        led_dis1[12] = 1;
	LDI  R30,LOW(1)
	__PUTB1MN _led_dis1,12
;        led_dis2[1] = 1;
	CALL SUBOPT_0x3
;        led_dis2[6] = 1;
	CALL SUBOPT_0x4
;        led_dis2[7] = 1;
;        led_dis2[11] = 1;
	__PUTB1MN _led_dis2,11
;        if(cnt1 > 63){
	LDD  R26,Y+1
	CPI  R26,LOW(0x40)
	BRLO _0x8
;            led_dis1[3] = 1;
	LDI  R30,LOW(1)
	__PUTB1MN _led_dis1,3
;            led_dis1[4] = 1;
	__PUTB1MN _led_dis1,4
;            led_dis();
	RJMP _0xEA
;        }
;        else {
_0x8:
;            led_dis1[2] = 1;
	LDI  R30,LOW(1)
	__PUTB1MN _led_dis1,2
;            led_dis();
_0xEA:
	RCALL _led_dis
;        }
;    }
;    else if (cnt1 > 0){
	RJMP _0xA
_0x7:
	LDD  R26,Y+1
	CPI  R26,LOW(0x1)
	BRLO _0xB
;        led_dis1[1] = 1;
	LDI  R30,LOW(1)
	__PUTB1MN _led_dis1,1
;        led_dis1[6] = 1;
	CALL SUBOPT_0x2
;        led_dis1[11] = 1;
	__PUTB1MN _led_dis1,11
;        led_dis2[1] = 1;
	CALL SUBOPT_0x3
;        led_dis2[5] = 1;
	__PUTB1MN _led_dis2,5
;        led_dis2[7] = 1;
	LDI  R30,LOW(1)
	__PUTB1MN _led_dis2,7
;        led_dis2[11] = 1;
	__PUTB1MN _led_dis2,11
;        if(cnt1 > 2){
	LDD  R26,Y+1
	CPI  R26,LOW(0x3)
	BRLO _0xC
;            led_dis1[9] = 1;
	__PUTB1MN _led_dis1,9
;            led_dis1[10] = 1;
	__PUTB1MN _led_dis1,10
;            led_dis();
	RJMP _0xEB
;        }
;        else {
_0xC:
;            led_dis1[8] = 1;
	LDI  R30,LOW(1)
	__PUTB1MN _led_dis1,8
;            led_dis();
_0xEB:
	RCALL _led_dis
;        }
;    }
;    if(cnt2 > 61){
_0xB:
_0xA:
	LD   R26,Y
	CPI  R26,LOW(0x3E)
	BRLO _0xE
;        led_dis2[6] = 1;
	LDI  R30,LOW(1)
	CALL SUBOPT_0x4
;        led_dis2[7] = 1;
;        led_dis2[12] = 1;
	__PUTB1MN _led_dis2,12
;        led_dis1[1] = 1;
	LDI  R30,LOW(1)
	__PUTB1MN _led_dis1,1
;        led_dis1[6] = 1;
	CALL SUBOPT_0x2
;        led_dis1[7] = 1;
	__PUTB1MN _led_dis1,7
;        led_dis1[11] = 1;
	LDI  R30,LOW(1)
	__PUTB1MN _led_dis1,11
;        if(cnt2 > 63){
	LD   R26,Y
	CPI  R26,LOW(0x40)
	BRLO _0xF
;            led_dis2[3] = 1;
	__PUTB1MN _led_dis2,3
;            led_dis2[4] = 1;
	__PUTB1MN _led_dis2,4
;            led_dis();
	RJMP _0xEC
;        }
;        else {
_0xF:
;            led_dis2[2] = 1;
	LDI  R30,LOW(1)
	__PUTB1MN _led_dis2,2
;            led_dis();
_0xEC:
	RCALL _led_dis
;        }
;    }
;    else if (cnt2 > 0){
	RJMP _0x11
_0xE:
	LD   R26,Y
	CPI  R26,LOW(0x1)
	BRLO _0x12
;        led_dis1[1] = 1;
	LDI  R30,LOW(1)
	__PUTB1MN _led_dis1,1
;        led_dis1[5] = 1;
	__PUTB1MN _led_dis1,5
;        led_dis1[7] = 1;
	__PUTB1MN _led_dis1,7
;        led_dis1[11] = 1;
	__PUTB1MN _led_dis1,11
;        led_dis2[6] = 1;
	__PUTB1MN _led_dis2,6
;        led_dis2[1] = 1;
	CALL SUBOPT_0x3
;        led_dis2[11] = 1;
	__PUTB1MN _led_dis2,11
;        if(cnt2 > 2){
	LD   R26,Y
	CPI  R26,LOW(0x3)
	BRLO _0x13
;            led_dis2[9] = 1;
	LDI  R30,LOW(1)
	__PUTB1MN _led_dis2,9
;            led_dis2[10] = 1;
	__PUTB1MN _led_dis2,10
;            led_dis();
	RJMP _0xED
;        }
;        else {
_0x13:
;            led_dis2[8] = 1;
	LDI  R30,LOW(1)
	__PUTB1MN _led_dis2,8
;            led_dis();
_0xED:
	RCALL _led_dis
;        }
;    }
;}
_0x12:
_0x11:
	RJMP _0x2060005
; .FEND
;
;void arr_init(){
_arr_init:
; .FSTART _arr_init
;    for(i = 0;i<2;i++){
	LDI  R30,LOW(0)
	STS  _i,R30
	STS  _i+1,R30
_0x16:
	CALL SUBOPT_0x5
	SBIW R26,2
	BRGE _0x17
;        for(k = 0;k<5;k++){
	LDI  R30,LOW(0)
	STS  _k,R30
	STS  _k+1,R30
_0x19:
	LDS  R26,_k
	LDS  R27,_k+1
	SBIW R26,5
	BRGE _0x1A
;            led_add[i][k] = 0;
	CALL SUBOPT_0x5
	LDI  R30,LOW(10)
	CALL __MULB1W2U
	SUBI R30,LOW(-_led_add)
	SBCI R31,HIGH(-_led_add)
	MOVW R26,R30
	CALL SUBOPT_0x0
	CALL SUBOPT_0x6
	LDI  R30,LOW(0)
	LDI  R31,HIGH(0)
	ST   X+,R30
	ST   X,R31
;        }
	CALL SUBOPT_0x1
	RJMP _0x19
_0x1A:
;    }
	CALL SUBOPT_0x7
	RJMP _0x16
_0x17:
;}
	RET
; .FEND
;
;
;void led_ad(){
_led_ad:
; .FSTART _led_ad
;    arr_init();
	RCALL _arr_init
;    for(i = 1; i<13;i++){
	CALL SUBOPT_0x8
_0x1C:
	CALL SUBOPT_0x5
	SBIW R26,13
	BRGE _0x1D
;        if(led_dis1[i] == 1) {
	CALL SUBOPT_0x9
	SUBI R30,LOW(-_led_dis1)
	SBCI R31,HIGH(-_led_dis1)
	LD   R26,Z
	CPI  R26,LOW(0x1)
	BRNE _0x1E
;            led_add[0][cnt] = i;
	LDS  R30,_cnt
	LDS  R31,_cnt+1
	LDI  R26,LOW(_led_add)
	LDI  R27,HIGH(_led_add)
	CALL SUBOPT_0xA
;            cnt++;
;        }
;    }
_0x1E:
	CALL SUBOPT_0x7
	RJMP _0x1C
_0x1D:
;    cnt = 0;
	LDI  R30,LOW(0)
	STS  _cnt,R30
	STS  _cnt+1,R30
;    for(i = 1; i<13;i++){
	CALL SUBOPT_0x8
_0x20:
	CALL SUBOPT_0x5
	SBIW R26,13
	BRGE _0x21
;        if(led_dis2[i] == 1) {
	CALL SUBOPT_0x9
	SUBI R30,LOW(-_led_dis2)
	SBCI R31,HIGH(-_led_dis2)
	LD   R26,Z
	CPI  R26,LOW(0x1)
	BRNE _0x22
;            led_add[1][cnt] = i;
	__POINTW2MN _led_add,10
	LDS  R30,_cnt
	LDS  R31,_cnt+1
	CALL SUBOPT_0xA
;            cnt++;
;        }
;    }
_0x22:
	CALL SUBOPT_0x7
	RJMP _0x20
_0x21:
;    cnt = 0;
	LDI  R30,LOW(0)
	STS  _cnt,R30
	STS  _cnt+1,R30
;
;}
	RET
; .FEND
;
;void led_dis(){
_led_dis:
; .FSTART _led_dis
;     for(i = 0; i<5; i++){
	LDI  R30,LOW(0)
	STS  _i,R30
	STS  _i+1,R30
_0x24:
	CALL SUBOPT_0x5
	SBIW R26,5
	BRGE _0x25
;        if(i == 0){
	CALL SUBOPT_0x9
	SBIW R30,0
	BRNE _0x26
;            PORTA.7 = 1;
	SBI  0x1B,7
;            PORTA.7 = 0;
	CBI  0x1B,7
;        }
;        PORTD = led_add[0][i] + (led_add[1][i]*16);
_0x26:
	CALL SUBOPT_0x9
	LDI  R26,LOW(_led_add)
	LDI  R27,HIGH(_led_add)
	CALL SUBOPT_0x6
	LD   R22,X
	__POINTW2MN _led_add,10
	CALL SUBOPT_0x9
	CALL SUBOPT_0x6
	LD   R30,X
	LDI  R26,LOW(16)
	MULS R30,R26
	MOVW R30,R0
	ADD  R30,R22
	OUT  0x12,R30
;     }
	CALL SUBOPT_0x7
	RJMP _0x24
_0x25:
;}
	RET
; .FEND
;
;#endif
;
;
;
;void Counter_add()
;{
_Counter_add:
; .FSTART _Counter_add
;        if(cnt1 > 0){
	LDS  R26,_cnt1
	CPI  R26,LOW(0x1)
	BRLO _0x2B
;            cnt1--;
	LDS  R30,_cnt1
	SUBI R30,LOW(1)
	STS  _cnt1,R30
;            if(cnt1 >60){
	LDS  R26,_cnt1
	CPI  R26,LOW(0x3D)
	BRLO _0x2C
;                printf("Green  %d sec", cnt1-60);
	__POINTW1FN _0x0,0
	ST   -Y,R31
	ST   -Y,R30
	LDS  R30,_cnt1
	LDI  R31,0
	SBIW R30,60
	CALL SUBOPT_0xB
;                printf("\r");
;            }
;            if(cnt1 <= 60){
_0x2C:
	LDS  R26,_cnt1
	CPI  R26,LOW(0x3D)
	BRSH _0x2D
;                printf("Red  %d sec", 120+cnt1);
	__POINTW1FN _0x0,16
	ST   -Y,R31
	ST   -Y,R30
	LDS  R30,_cnt1
	LDI  R31,0
	SUBI R30,LOW(-120)
	SBCI R31,HIGH(-120)
	CALL SUBOPT_0xB
;                printf("\r");
;            }
;            if(cnt1 == 0)cnt2 = 121;
_0x2D:
	LDS  R30,_cnt1
	CPI  R30,0
	BRNE _0x2E
	LDI  R30,LOW(121)
	STS  _cnt2,R30
;            led_change(cnt1, cnt2);
_0x2E:
	RJMP _0x2060007
;            led_ad();
;            return;
;        }
;        if(cnt2 > 0){
_0x2B:
	LDS  R26,_cnt2
	CPI  R26,LOW(0x1)
	BRLO _0x2F
;            cnt2--;
	LDS  R30,_cnt2
	SUBI R30,LOW(1)
	STS  _cnt2,R30
;            printf("Red  %d sec", cnt2);
	__POINTW1FN _0x0,16
	ST   -Y,R31
	ST   -Y,R30
	LDS  R30,_cnt2
	CALL SUBOPT_0xC
	CALL _printf
	ADIW R28,6
;            printf("\r");
	__POINTW1FN _0x0,14
	ST   -Y,R31
	ST   -Y,R30
	LDI  R24,0
	CALL _printf
	ADIW R28,2
;            if(cnt2 == 0)cnt1 = 121;
	LDS  R30,_cnt2
	CPI  R30,0
	BRNE _0x30
	LDI  R30,LOW(121)
	STS  _cnt1,R30
;            led_change(cnt1, cnt2);
_0x30:
_0x2060007:
	LDS  R30,_cnt1
	ST   -Y,R30
	LDS  R26,_cnt2
	RCALL _led_change
;            led_ad();
	RCALL _led_ad
;            return;
	RET
;        }
;
;}
_0x2F:
	RET
; .FEND
;
;#endif
;#include "leddis.c"
;#ifndef _leddis_
;#define _leddis_
;
;
;char led_dis1[13] = {0,};
;char led_dis2[13] = {0,};
;int led_add[2][5] = {0,};
;int i, k, cnt = 0;
;
;void led_dis();
;
;void led_init(){
;    for(k=1 ; k<13 ; k++) {
;        led_dis1[k] = 0;
;        led_dis2[k] = 0;
;    }
;}
;
;
;void led_change(char cnt1, char cnt2){
;    led_init();
;    if(cnt1 > 61){
;    //printf("1");
;        led_dis1[6] = 1;
;        led_dis1[7] = 1;
;        led_dis1[12] = 1;
;        led_dis2[1] = 1;
;        led_dis2[6] = 1;
;        led_dis2[7] = 1;
;        led_dis2[11] = 1;
;        if(cnt1 > 63){
;            led_dis1[3] = 1;
;            led_dis1[4] = 1;
;            led_dis();
;        }
;        else {
;            led_dis1[2] = 1;
;            led_dis();
;        }
;    }
;    else if (cnt1 > 0){
;        led_dis1[1] = 1;
;        led_dis1[6] = 1;
;        led_dis1[11] = 1;
;        led_dis2[1] = 1;
;        led_dis2[5] = 1;
;        led_dis2[7] = 1;
;        led_dis2[11] = 1;
;        if(cnt1 > 2){
;            led_dis1[9] = 1;
;            led_dis1[10] = 1;
;            led_dis();
;        }
;        else {
;            led_dis1[8] = 1;
;            led_dis();
;        }
;    }
;    if(cnt2 > 61){
;        led_dis2[6] = 1;
;        led_dis2[7] = 1;
;        led_dis2[12] = 1;
;        led_dis1[1] = 1;
;        led_dis1[6] = 1;
;        led_dis1[7] = 1;
;        led_dis1[11] = 1;
;        if(cnt2 > 63){
;            led_dis2[3] = 1;
;            led_dis2[4] = 1;
;            led_dis();
;        }
;        else {
;            led_dis2[2] = 1;
;            led_dis();
;        }
;    }
;    else if (cnt2 > 0){
;        led_dis1[1] = 1;
;        led_dis1[5] = 1;
;        led_dis1[7] = 1;
;        led_dis1[11] = 1;
;        led_dis2[6] = 1;
;        led_dis2[1] = 1;
;        led_dis2[11] = 1;
;        if(cnt2 > 2){
;            led_dis2[9] = 1;
;            led_dis2[10] = 1;
;            led_dis();
;        }
;        else {
;            led_dis2[8] = 1;
;            led_dis();
;        }
;    }
;}
;
;void arr_init(){
;    for(i = 0;i<2;i++){
;        for(k = 0;k<5;k++){
;            led_add[i][k] = 0;
;        }
;    }
;}
;
;
;void led_ad(){
;    arr_init();
;    for(i = 1; i<13;i++){
;        if(led_dis1[i] == 1) {
;            led_add[0][cnt] = i;
;            cnt++;
;        }
;    }
;    cnt = 0;
;    for(i = 1; i<13;i++){
;        if(led_dis2[i] == 1) {
;            led_add[1][cnt] = i;
;            cnt++;
;        }
;    }
;    cnt = 0;
;
;}
;
;void led_dis(){
;     for(i = 0; i<5; i++){
;        if(i == 0){
;            PORTA.7 = 1;
;            PORTA.7 = 0;
;        }
;        PORTD = led_add[0][i] + (led_add[1][i]*16);
;     }
;}
;
;#endif
;
;#include "uart.c"
;
;
;#ifndef _uart_
;#define _uart_
;
;
;void uart0_init(void)
; 0000 000B {
_uart0_init:
; .FSTART _uart0_init
;  UCSR0A = 0x00;  // flag  clr, 멀티프로세싱 모드
	LDI  R30,LOW(0)
	OUT  0xB,R30
;  UCSR0B = 0x98; //rx,tx en, rx int on
	LDI  R30,LOW(152)
	OUT  0xA,R30
;  UCSR0C = 0x06; //n-p,1-stop
	LDI  R30,LOW(6)
	STS  149,R30
;  UBRR0H = 0x00;
	LDI  R30,LOW(0)
	STS  144,R30
;  UBRR0L = 47; //8mhz, 9600, 103 - 16mhz, 47 = 7.2738mhz,
	LDI  R30,LOW(47)
	OUT  0x9,R30
;}
	RET
; .FEND
;
;
;#endif
;#include "fnd.c"
;
;#ifndef _fnd_
;#define _fnd_
;
;char scan = 0;
;
;
;// fnd comm k type
;
;const unsigned char fnd_font[] =
;{
;   // 0,   1,   2,   3,   4,   5,   6,   7,   8,   9,   H,   L,   E,   o,   P,  F,
;   0x3f,0x06,0x5b,0x4f,0x66,0x6d,0x7d,0x27,0x7f,0x6f,0x76,0x38,0x79,0x5c,0x73,0x71,
;
;   // C,    d,    A,    u,    T,    r,   b,
;   0x39, 0x5e, 0x77, 0x1c, 0x44, 0x50, 0x7c
;};
;
;
;// fnd maseg display
;#define O   0x0d   //o display
;#define F   0x0f    // F display
;#define H   0x0a    // H   "
;#define L   0x0b    // L   "
;#define E   0x0c    // E   "
;#define P   0x0e    // P   "
;#define C   16 //0x10    // C   "
;#define D   0x11    // d   "
;#define A   0x12    // A   "
;#define U   0x13    // u   "
;#define T   0x14    // t   "
;#define R   0x15    // r   "
;#define b   0x16    // b   "
;#define BLK 0x00   // fnd blk display
;
;
;#define fnd_out(val) PORTC = val
;
;
;
;void fnd_dis(char data, char port_data1, char port_data2)                //모드 0~3, 6 에서의 FND 출력
; 0000 000C {
_fnd_dis:
; .FSTART _fnd_dis
;
;  scan++;
	ST   -Y,R26
;	data -> Y+2
;	port_data1 -> Y+1
;	port_data2 -> Y+0
	LDS  R30,_scan
	SUBI R30,-LOW(1)
	STS  _scan,R30
;  if(scan > 2) scan = 1;
	LDS  R26,_scan
	CPI  R26,LOW(0x3)
	BRLO _0x31
	LDI  R30,LOW(1)
	STS  _scan,R30
;
;  switch(scan)
_0x31:
	LDS  R30,_scan
	LDI  R31,0
;   {
;     case 1:
	CPI  R30,LOW(0x1)
	LDI  R26,HIGH(0x1)
	CPC  R31,R26
	BRNE _0x35
;            PORTF = 0x00;
	LDI  R30,LOW(0)
	STS  98,R30
;
;            fnd_out(~fnd_font[data/10]);
	LDD  R26,Y+2
	LDI  R27,0
	LDI  R30,LOW(10)
	LDI  R31,HIGH(10)
	CALL __DIVW21
	SUBI R30,LOW(-_fnd_font*2)
	SBCI R31,HIGH(-_fnd_font*2)
	LPM  R30,Z
	COM  R30
	OUT  0x15,R30
;
;            PORTF = port_data1;
	LDD  R30,Y+1
	RJMP _0xEE
;
;     break;
;
;    case 2:
_0x35:
	CPI  R30,LOW(0x2)
	LDI  R26,HIGH(0x2)
	CPC  R31,R26
	BRNE _0x34
;            PORTF = 0x00;
	LDI  R30,LOW(0)
	STS  98,R30
;
;            fnd_out(~fnd_font[data%10]);
	LDD  R26,Y+2
	CLR  R27
	LDI  R30,LOW(10)
	LDI  R31,HIGH(10)
	CALL __MODW21
	SUBI R30,LOW(-_fnd_font*2)
	SBCI R31,HIGH(-_fnd_font*2)
	LPM  R30,Z
	COM  R30
	OUT  0x15,R30
;
;            PORTF = port_data2;
	LD   R30,Y
_0xEE:
	STS  98,R30
;     break;
;
;   }
_0x34:
;}
	JMP  _0x2060003
; .FEND
;
;#endif
;#include "ext_int.c"
;
;
;#ifndef _ext_int_
;#define _ext_int_
;
;
;#define G_INT_ON  #asm("sei")
;#define G_INT_OFF #asm("cli")
;//#define g_on  SREG = 0x80
;
;#define key8  PINE.4
;#define INT4_ON   bit_set(EIMSK, 4)
;#define INT4_OFF  bit_clr(EIMSK, 4)
;#define bit_set(ADDRESS, BIT) (ADDRESS |= (1<<BIT)) // bit hi
;#define bit_clr(ADDRESS, BIT) (ADDRESS &= ~(1<<BIT)) // bit low
;#define bit_chk(ADDRESS, BIT) (ADDRESS & (1<<BIT))  // bit chak
;
;#include "Counter.c"
;#ifndef _Counter_
;#define _Counter_
;
;char cnt1 = 121;
;char cnt2 = 0;
;
;
;#include "leddis.c"
;
;
;void Counter_add()
;{
;        if(cnt1 > 0){
;            cnt1--;
;            if(cnt1 >60){
;                printf("Green  %d sec", cnt1-60);
;                printf("\r");
;            }
;            if(cnt1 <= 60){
;                printf("Red  %d sec", 120+cnt1);
;                printf("\r");
;            }
;            if(cnt1 == 0)cnt2 = 121;
;            led_change(cnt1, cnt2);
;            led_ad();
;            return;
;        }
;        if(cnt2 > 0){
;            cnt2--;
;            printf("Red  %d sec", cnt2);
;            printf("\r");
;            if(cnt2 == 0)cnt1 = 121;
;            led_change(cnt1, cnt2);
;            led_ad();
;            return;
;        }
;
;}
;
;#endif
;
;interrupt [EXT_INT4] void ext_int4_isr(void)
; 0000 000D {
_ext_int4_isr:
; .FSTART _ext_int4_isr
	CALL SUBOPT_0xD
;  INT4_OFF;
	ANDI R30,0xEF
	OUT  0x39,R30
;  if(key8 == 0) // if((PINE & 0x10) != 0x10)
	SBIC 0x1,4
	RJMP _0x37
;   {
;     delay_ms(5);
	CALL SUBOPT_0xE
;     if(key8 == 0) // if((PINE & 0x10) != 0x10)
	SBIC 0x1,4
	RJMP _0x38
;      {
;        delay_ms(2);
	CALL SUBOPT_0xF
;        if(key8 == 0) // if((PINE & 0x10) != 0x10)
	SBIC 0x1,4
	RJMP _0x39
;        {
;          // key in ok
;          key4_flag = 1;
	LDI  R30,LOW(1)
	MOV  R13,R30
;        }
;      }
_0x39:
;   }
_0x38:
;  INT4_ON;
_0x37:
	IN   R30,0x39
	ORI  R30,0x10
	OUT  0x39,R30
;}
	RJMP _0xFA
; .FEND
;
;
;interrupt [EXT_INT5] void ext_int5_isr(void)
;{
_ext_int5_isr:
; .FSTART _ext_int5_isr
	CALL SUBOPT_0xD
;   bit_clr(EIMSK, 5);
	ANDI R30,0xDF
	OUT  0x39,R30
;  if(PINE.5 == 0) // if((PINE & 0x10) != 0x10)
	SBIC 0x1,5
	RJMP _0x3A
;   {
;     delay_ms(5);
	CALL SUBOPT_0xE
;     if(PINE.5 == 0) // if((PINE & 0x10) != 0x10)
	SBIC 0x1,5
	RJMP _0x3B
;      {
;        delay_ms(2);
	CALL SUBOPT_0xF
;        if(PINE.5 == 0) // if((PINE & 0x10) != 0x10)
	SBIC 0x1,5
	RJMP _0x3C
;        {
;          // key in ok
;          key5_flag = 1;
	LDI  R30,LOW(1)
	MOV  R12,R30
;        }
;      }
_0x3C:
;   }
_0x3B:
;  bit_set(EIMSK, 5);
_0x3A:
	IN   R30,0x39
	ORI  R30,0x20
	OUT  0x39,R30
;  //printf("4");
;}
	RJMP _0xFA
; .FEND
;
;
;interrupt [EXT_INT6] void ext_int6_isr(void)
;{
_ext_int6_isr:
; .FSTART _ext_int6_isr
	CALL SUBOPT_0xD
;   bit_clr(EIMSK, 6);
	ANDI R30,0xBF
	OUT  0x39,R30
;  if(PINE.6 == 0) // if((PINE & 0x10) != 0x10)
	SBIC 0x1,6
	RJMP _0x3D
;   {
;     delay_ms(5);
	CALL SUBOPT_0xE
;     if(PINE.6 == 0) // if((PINE & 0x10) != 0x10)
	SBIC 0x1,6
	RJMP _0x3E
;      {
;        delay_ms(2);
	CALL SUBOPT_0xF
;        if(PINE.6 == 0) // if((PINE & 0x10) != 0x10)
	SBIC 0x1,6
	RJMP _0x3F
;        {
;          // key in ok
;          key6_flag = 1;
	LDI  R30,LOW(1)
	STS  _key6_flag,R30
;          time_count++;
	MOVW R30,R10
	ADIW R30,1
	MOVW R10,R30
;          if(time_count == 3)time_count = 0;
	LDI  R30,LOW(3)
	LDI  R31,HIGH(3)
	CP   R30,R10
	CPC  R31,R11
	BRNE _0x40
	CLR  R10
	CLR  R11
;        }
_0x40:
;      }
_0x3F:
;   }
_0x3E:
;  bit_set(EIMSK, 6);
_0x3D:
	IN   R30,0x39
	ORI  R30,0x40
	OUT  0x39,R30
;}
	RJMP _0xFA
; .FEND
;
;
;interrupt [EXT_INT7] void ext_int7_isr(void)
;{
_ext_int7_isr:
; .FSTART _ext_int7_isr
	CALL SUBOPT_0xD
;    bit_clr(EIMSK, 7);
	ANDI R30,0x7F
	OUT  0x39,R30
;  if(PINE.7 == 0) // if((PINE & 0x10) != 0x10)
	SBIC 0x1,7
	RJMP _0x41
;   {
;     delay_ms(5);
	CALL SUBOPT_0xE
;     if(PINE.7 == 0) // if((PINE & 0x10) != 0x10)
	SBIC 0x1,7
	RJMP _0x42
;      {
;        delay_ms(2);
	CALL SUBOPT_0xF
;        if(PINE.7 == 0) // if((PINE & 0x10) != 0x10)
	SBIC 0x1,7
	RJMP _0x43
;        {
;          // key in ok
;          key7_flag = 1;
	LDI  R30,LOW(1)
	STS  _key7_flag,R30
;        }
;      }
_0x43:
;   }
_0x42:
;  bit_set(EIMSK, 7);
_0x41:
	IN   R30,0x39
	ORI  R30,0x80
	OUT  0x39,R30
;}
	RJMP _0xFA
; .FEND
;
;
;
;#endif
;#include "Glcd_func.c"
;#ifndef __Glcd_func__
;#define __Glcd_func__
;
;int lcd_loop = 0;
;char sec = 0, min = 0, hour = 0, load = 1;

	.DSEG
;char buf[3];
;
;#include "glcd_128.h"

	.CSEG
_GLCD_Print_Picture:
; .FSTART _GLCD_Print_Picture
	ST   -Y,R26
	CALL __SAVELOCR4
;	Picture_Select -> Y+4
;	x -> R17
;	y -> R16
;	Count -> R18,R19
	LDI  R17,0
	LDI  R16,0
	__GETWRN 18,19,0
	SBI  0x1B,3
	CBI  0x1B,4
	LDI  R17,LOW(0)
_0x4A:
	CPI  R17,64
	BRSH _0x4B
	LDI  R16,LOW(0)
_0x4D:
	CPI  R16,8
	BRSH _0x4E
	CALL SUBOPT_0x10
	BRNE _0x4F
	MOVW R30,R18
	SUBI R30,LOW(-_screen1*2)
	SBCI R31,HIGH(-_screen1*2)
	RJMP _0xEF
_0x4F:
	LDD  R26,Y+4
	CPI  R26,LOW(0x2)
	BRNE _0x51
	MOVW R30,R18
	SUBI R30,LOW(-_screen2*2)
	SBCI R31,HIGH(-_screen2*2)
	RJMP _0xEF
_0x51:
	LDD  R26,Y+4
	CPI  R26,LOW(0x3)
	BRNE _0x53
	MOVW R30,R18
	SUBI R30,LOW(-_screen3*2)
	SBCI R31,HIGH(-_screen3*2)
_0xEF:
	LPM  R26,Z
	RCALL _Write_Data
_0x53:
	__ADDWRN 18,19,1
	SUBI R16,-1
	RJMP _0x4D
_0x4E:
	SUBI R17,-1
	RJMP _0x4A
_0x4B:
	CBI  0x1B,3
	SBI  0x1B,4
	LDI  R17,LOW(0)
_0x59:
	CPI  R17,64
	BRSH _0x5A
	LDI  R16,LOW(0)
_0x5C:
	CPI  R16,8
	BRSH _0x5D
	CALL SUBOPT_0x10
	BRNE _0x5E
	MOVW R30,R18
	SUBI R30,LOW(-_screen1*2)
	SBCI R31,HIGH(-_screen1*2)
	RJMP _0xF0
_0x5E:
	LDD  R26,Y+4
	CPI  R26,LOW(0x2)
	BRNE _0x60
	MOVW R30,R18
	SUBI R30,LOW(-_screen2*2)
	SBCI R31,HIGH(-_screen2*2)
	RJMP _0xF0
_0x60:
	LDD  R26,Y+4
	CPI  R26,LOW(0x3)
	BRNE _0x62
	MOVW R30,R18
	SUBI R30,LOW(-_screen3*2)
	SBCI R31,HIGH(-_screen3*2)
_0xF0:
	LPM  R26,Z
	RCALL _Write_Data
_0x62:
	__ADDWRN 18,19,1
	SUBI R16,-1
	RJMP _0x5C
_0x5D:
	SUBI R17,-1
	RJMP _0x59
_0x5A:
	CALL __LOADLOCR4
	JMP  _0x2060002
; .FEND
_Write_String_6x8:
; .FSTART _Write_String_6x8
	ST   -Y,R27
	ST   -Y,R26
;	x -> Y+3
;	y -> Y+2
;	*string -> Y+0
	SBI  0x1B,3
	CBI  0x1B,4
_0x67:
	LD   R30,Y
	LDD  R31,Y+1
	LPM  R30,Z
	CPI  R30,0
	BREQ _0x69
	LDD  R30,Y+3
	ST   -Y,R30
	LDD  R30,Y+3
	ST   -Y,R30
	LDD  R30,Y+2
	LDD  R31,Y+2+1
	LPM  R26,Z
	RCALL _Write_Char
	LD   R30,Y
	LDD  R31,Y+1
	ADIW R30,1
	ST   Y,R30
	STD  Y+1,R31
	LDD  R30,Y+3
	SUBI R30,-LOW(1)
	STD  Y+3,R30
	RJMP _0x67
_0x69:
	RJMP _0x2060006
; .FEND
_Write_Char:
; .FSTART _Write_Char
	ST   -Y,R26
	ST   -Y,R17
;	x -> Y+3
;	y -> Y+2
;	Byte -> Y+1
;	i -> R17
	LDD  R26,Y+3
	CPI  R26,LOW(0xA)
	BRLO _0x6A
	CBI  0x1B,3
	SBI  0x1B,4
	RJMP _0x6F
_0x6A:
	SBI  0x1B,3
	CBI  0x1B,4
_0x6F:
	LDI  R17,LOW(4)
_0x75:
	CPI  R17,9
	BRSH _0x76
	LDD  R30,Y+3
	LDI  R26,LOW(6)
	MULS R30,R26
	MOVW R30,R0
	ADD  R30,R17
	ST   -Y,R30
	LDD  R26,Y+3
	RCALL _lcd_gotoxy
	LDD  R30,Y+1
	LDI  R31,0
	SBIW R30,32
	LDI  R26,LOW(5)
	LDI  R27,HIGH(5)
	CALL __MULW12U
	SUBI R30,LOW(-_font*2)
	SBCI R31,HIGH(-_font*2)
	MOVW R26,R30
	MOV  R30,R17
	LDI  R31,0
	SBIW R30,4
	ADD  R30,R26
	ADC  R31,R27
	LPM  R26,Z
	RCALL _Write_Data
	SUBI R17,-1
	RJMP _0x75
_0x76:
	LDD  R17,Y+0
_0x2060006:
	ADIW R28,4
	RET
; .FEND
;	x -> R17
;	y -> R16
_lcd_gotox:
; .FSTART _lcd_gotox
	ST   -Y,R26
;	lcd_gotox -> Y+0
	CBI  0x1B,0
	CBI  0x1B,1
	LD   R30,Y
	ORI  R30,0x40
	OUT  0x18,R30
	RCALL _E_Pulse
	JMP  _0x2060004
; .FEND
_lcd_gotopage:
; .FSTART _lcd_gotopage
	ST   -Y,R26
;	Page -> Y+0
	CBI  0x1B,0
	CBI  0x1B,1
	LD   R30,Y
	ORI  R30,LOW(0xB8)
	OUT  0x18,R30
	RCALL _E_Pulse
	JMP  _0x2060004
; .FEND
_lcd_gotoxy:
; .FSTART _lcd_gotoxy
	ST   -Y,R26
;	x -> Y+1
;	y -> Y+0
	LDD  R26,Y+1
	RCALL _lcd_gotox
	LD   R26,Y
	RCALL _lcd_gotopage
_0x2060005:
	ADIW R28,2
	RET
; .FEND
_Write_Data:
; .FSTART _Write_Data
	ST   -Y,R26
;	Write_Data -> Y+0
	SBI  0x1B,0
	CBI  0x1B,1
	LD   R30,Y
	OUT  0x18,R30
	RCALL _E_Pulse
	JMP  _0x2060004
; .FEND
_GLCD_Init:
; .FSTART _GLCD_Init
	CBI  0x1B,1
	CBI  0x1B,0
	LDI  R30,LOW(63)
	OUT  0x18,R30
	RCALL _E_Pulse
	RET
; .FEND
_E_Pulse:
; .FSTART _E_Pulse
	SBI  0x1B,2
	CBI  0x1B,2
	RET
; .FEND
_MCU_Init:
; .FSTART _MCU_Init
	LDI  R30,LOW(255)
	OUT  0x17,R30
	OUT  0x1A,R30
	SBI  0x1B,3
	RET
; .FEND
;
;
;void func_init(){
; 0000 000E void func_init(){
_func_init:
; .FSTART _func_init
;    GLCD_Init();
	RCALL _GLCD_Init
;    MCU_Init();
	RCALL _MCU_Init
;    hour = 8;
	LDI  R30,LOW(8)
	STS  _hour,R30
;    min = 30;
	LDI  R30,LOW(30)
	STS  _min,R30
;    sec = 30;
	STS  _sec,R30
;}
	RET
; .FEND
;
;void disp()
;{
_disp:
; .FSTART _disp
;  sprintf(buf,"%2d",hour);
	CALL SUBOPT_0x11
	LDS  R30,_hour
	CALL SUBOPT_0xC
	CALL SUBOPT_0x12
;  if(key6_flag == 1){
	BRNE _0x97
;    if(led_flag == 0 & time_count == 0){
	CALL SUBOPT_0x13
	LDI  R30,LOW(0)
	LDI  R31,HIGH(0)
	CALL __EQW12
	AND  R30,R0
	BREQ _0x98
;        Write_Char(12, 0, ' '); Write_Char(13, 0, ' '); Write_Char(14, 0, ':');
	CALL SUBOPT_0x14
	LDI  R26,LOW(32)
	CALL SUBOPT_0x15
	LDI  R26,LOW(32)
	RJMP _0xF1
;    }
;    else {
_0x98:
;        Write_Char(12, 0, buf[0]); Write_Char(13, 0, buf[1]); Write_Char(14, 0, ':');
	CALL SUBOPT_0x14
	LDS  R26,_buf
	CALL SUBOPT_0x15
	__GETB2MN _buf,1
_0xF1:
	RCALL _Write_Char
	CALL SUBOPT_0x16
;        }
;  }
;  else {
	RJMP _0x9A
_0x97:
;    Write_Char(12, 0, buf[0]); Write_Char(13, 0, buf[1]); Write_Char(14, 0, ':');
	CALL SUBOPT_0x14
	LDS  R26,_buf
	CALL SUBOPT_0x15
	CALL SUBOPT_0x17
	CALL SUBOPT_0x16
;  }
_0x9A:
;
;  sprintf(buf,"%2d",min);
	CALL SUBOPT_0x11
	LDS  R30,_min
	CALL SUBOPT_0xC
	CALL SUBOPT_0x12
;
;  if(key6_flag == 1){
	BRNE _0x9B
;    if(led_flag == 0 & time_count == 1){
	CALL SUBOPT_0x13
	LDI  R30,LOW(1)
	LDI  R31,HIGH(1)
	CALL __EQW12
	AND  R30,R0
	BREQ _0x9C
;        Write_Char(15, 0, ' '); Write_Char(16, 0, ' '); Write_Char(17, 0, ':');
	CALL SUBOPT_0x18
	LDI  R26,LOW(32)
	CALL SUBOPT_0x19
	LDI  R26,LOW(32)
	RJMP _0xF2
;    }
;    else {
_0x9C:
;        Write_Char(15, 0, buf[0]); Write_Char(16, 0, buf[1]); Write_Char(17, 0, ':');
	CALL SUBOPT_0x18
	LDS  R26,_buf
	CALL SUBOPT_0x19
	__GETB2MN _buf,1
_0xF2:
	RCALL _Write_Char
	CALL SUBOPT_0x1A
;        }
;  }
;  else {
	RJMP _0x9E
_0x9B:
;    Write_Char(15, 0, buf[0]); Write_Char(16, 0, buf[1]); Write_Char(17, 0, ':');
	CALL SUBOPT_0x18
	LDS  R26,_buf
	CALL SUBOPT_0x19
	CALL SUBOPT_0x17
	CALL SUBOPT_0x1A
;  }
_0x9E:
;
;  //Write_Char(15, 0, buf[0]); Write_Char(16, 0, buf[1]); Write_Char(17, 0, ':');
;
;  sprintf(buf,"%2d",sec);
	CALL SUBOPT_0x11
	LDS  R30,_sec
	CALL SUBOPT_0xC
	CALL SUBOPT_0x12
;
;  if(key6_flag == 1){
	BRNE _0x9F
;    if(led_flag == 0 & time_count == 2){
	CALL SUBOPT_0x13
	LDI  R30,LOW(2)
	LDI  R31,HIGH(2)
	CALL __EQW12
	AND  R30,R0
	BREQ _0xA0
;        Write_Char(18, 0, ' '); Write_Char(19, 0, ' ');
	CALL SUBOPT_0x1B
	LDI  R26,LOW(32)
	CALL SUBOPT_0x1C
	LDI  R26,LOW(32)
	RJMP _0xF3
;    }
;    else {
_0xA0:
;        Write_Char(18, 0, buf[0]); Write_Char(19, 0, buf[1]);
	CALL SUBOPT_0x1B
	LDS  R26,_buf
	CALL SUBOPT_0x1C
	__GETB2MN _buf,1
_0xF3:
	RCALL _Write_Char
;        }
;  }
;  else {
	RJMP _0xA2
_0x9F:
;    Write_Char(18, 0, buf[0]); Write_Char(19, 0, buf[1]);
	CALL SUBOPT_0x1B
	LDS  R26,_buf
	CALL SUBOPT_0x1C
	CALL SUBOPT_0x17
;  }
_0xA2:
;
;  //Write_Char(18, 0, buf[0]); Write_Char(19, 0, buf[1]);
;}
	RET
; .FEND
;
;void glcd_dis(){
_glcd_dis:
; .FSTART _glcd_dis
;    lcd_loop = 0;
	LDI  R30,LOW(0)
	STS  _lcd_loop,R30
	STS  _lcd_loop+1,R30
;    switch(load)
	LDS  R30,_load
	LDI  R31,0
;    {
;        case 1:
	CPI  R30,LOW(0x1)
	LDI  R26,HIGH(0x1)
	CPC  R31,R26
	BRNE _0xA6
;            if(hour >= 9 & hour <= 18) GLCD_Print_Picture(1);
	CALL SUBOPT_0x1D
	BREQ _0xA7
	LDI  R26,LOW(1)
	RCALL _GLCD_Print_Picture
;            if(hour >= 12 & hour <= 14) GLCD_Print_Picture(2);
_0xA7:
	CALL SUBOPT_0x1E
	BREQ _0xA8
	LDI  R26,LOW(2)
	RJMP _0xF4
;            else if((hour >= 8 & hour < 9) | (hour >18 & hour <= 20)) GLCD_Print_Picture(3);
_0xA8:
	CALL SUBOPT_0x1F
	BREQ _0xAA
	LDI  R26,LOW(3)
_0xF4:
	RCALL _GLCD_Print_Picture
;            disp();
_0xAA:
	CALL SUBOPT_0x20
;            Write_String_6x8(10, 1, "Gajang");
	__POINTW2FN _0x0,32
	CALL SUBOPT_0x21
;            Write_String_6x8(10, 3, "Limit 60Km");
	LDI  R30,LOW(3)
	ST   -Y,R30
	__POINTW2FN _0x0,39
	CALL SUBOPT_0x21
;            Write_String_6x8(10, 2, "STREET");
	CALL SUBOPT_0x22
;            Write_String_6x8(9, 4, "->Sintanjin");
	__POINTW2FN _0x0,57
	CALL SUBOPT_0x21
;            Write_String_6x8(10, 5, "^Dongsedae");
	LDI  R30,LOW(5)
	ST   -Y,R30
	__POINTW2FN _0x0,69
	CALL SUBOPT_0x23
;            Write_String_6x8(9, 6, "<-Hanbatdae");
	__POINTW2FN _0x0,80
	RJMP _0xF5
;        break;
;
;        case 2:
_0xA6:
	CPI  R30,LOW(0x2)
	LDI  R26,HIGH(0x2)
	CPC  R31,R26
	BRNE _0xAB
;            if(hour >= 10 & hour <= 18) GLCD_Print_Picture(1);
	LDS  R26,_hour
	LDI  R30,LOW(10)
	CALL SUBOPT_0x24
	LDI  R30,LOW(18)
	CALL __LEB12U
	AND  R30,R0
	BREQ _0xAC
	LDI  R26,LOW(1)
	RCALL _GLCD_Print_Picture
;            if(hour >= 12 & hour <= 14) GLCD_Print_Picture(2);
_0xAC:
	CALL SUBOPT_0x1E
	BREQ _0xAD
	LDI  R26,LOW(2)
	RJMP _0xF6
;            else if((hour >= 7 & hour < 9) | (hour >18 & hour <= 20)) GLCD_Print_Picture(3);
_0xAD:
	LDS  R26,_hour
	LDI  R30,LOW(7)
	CALL SUBOPT_0x24
	CALL SUBOPT_0x25
	BREQ _0xAF
	LDI  R26,LOW(3)
_0xF6:
	RCALL _GLCD_Print_Picture
;            disp();
_0xAF:
	CALL SUBOPT_0x20
;            Write_String_6x8(10, 1, "Sintanjin");
	__POINTW2FN _0x0,59
	CALL SUBOPT_0x21
;            Write_String_6x8(10, 3, "Limit 50Km");
	LDI  R30,LOW(3)
	ST   -Y,R30
	__POINTW2FN _0x0,92
	CALL SUBOPT_0x21
;            Write_String_6x8(10, 2, "STREET");
	CALL SUBOPT_0x22
;            Write_String_6x8(9, 4, "->Dongsedae");
	__POINTW2FN _0x0,103
	CALL SUBOPT_0x21
;            Write_String_6x8(10, 5, "^Hanbatdae");
	LDI  R30,LOW(5)
	ST   -Y,R30
	__POINTW2FN _0x0,115
	CALL SUBOPT_0x23
;            Write_String_6x8(9, 6, "<-Gajang");
	__POINTW2FN _0x0,126
	RJMP _0xF5
;        break;
;
;        case 3:
_0xAB:
	CPI  R30,LOW(0x3)
	LDI  R26,HIGH(0x3)
	CPC  R31,R26
	BRNE _0xB0
;            if(hour >= 9 & hour <= 18) GLCD_Print_Picture(1);
	CALL SUBOPT_0x1D
	BREQ _0xB1
	LDI  R26,LOW(1)
	RCALL _GLCD_Print_Picture
;            if(hour >= 11 & hour <= 13) GLCD_Print_Picture(2);
_0xB1:
	LDS  R26,_hour
	LDI  R30,LOW(11)
	CALL SUBOPT_0x24
	LDI  R30,LOW(13)
	CALL __LEB12U
	AND  R30,R0
	BREQ _0xB2
	LDI  R26,LOW(2)
	RJMP _0xF7
;            else if((hour >= 7 & hour < 9) | (hour >18 & hour <= 20)) GLCD_Print_Picture(3);
_0xB2:
	LDS  R26,_hour
	LDI  R30,LOW(7)
	CALL SUBOPT_0x24
	CALL SUBOPT_0x25
	BREQ _0xB4
	LDI  R26,LOW(3)
_0xF7:
	RCALL _GLCD_Print_Picture
;            disp();
_0xB4:
	CALL SUBOPT_0x20
;            Write_String_6x8(10, 1, "Dongsedae");
	__POINTW2FN _0x0,70
	CALL SUBOPT_0x21
;            Write_String_6x8(10, 3, "Limit 80Km");
	CALL SUBOPT_0x26
;            Write_String_6x8(10, 2, "STREET");
	CALL SUBOPT_0x22
;            Write_String_6x8(9, 4, "->Hanbatdae");
	__POINTW2FN _0x0,146
	CALL SUBOPT_0x21
;            Write_String_6x8(10, 5, "^Gajang");
	LDI  R30,LOW(5)
	ST   -Y,R30
	__POINTW2FN _0x0,158
	CALL SUBOPT_0x23
;            Write_String_6x8(9, 6, "<-Sintanjin");
	__POINTW2FN _0x0,166
	RJMP _0xF5
;        break;
;
;        case 4:
_0xB0:
	CPI  R30,LOW(0x4)
	LDI  R26,HIGH(0x4)
	CPC  R31,R26
	BRNE _0xA5
;            if(hour >= 9 & hour <= 18) GLCD_Print_Picture(1);
	CALL SUBOPT_0x1D
	BREQ _0xB6
	LDI  R26,LOW(1)
	RCALL _GLCD_Print_Picture
;            if(hour >= 12 & hour <= 14) GLCD_Print_Picture(2);
_0xB6:
	CALL SUBOPT_0x1E
	BREQ _0xB7
	LDI  R26,LOW(2)
	RJMP _0xF8
;            else if((hour >= 8 & hour < 9) | (hour >18 & hour <= 20)) GLCD_Print_Picture(3);
_0xB7:
	CALL SUBOPT_0x1F
	BREQ _0xB9
	LDI  R26,LOW(3)
_0xF8:
	RCALL _GLCD_Print_Picture
;            disp();
_0xB9:
	CALL SUBOPT_0x20
;            Write_String_6x8(10, 1, "Hanbatdae");
	__POINTW2FN _0x0,82
	CALL SUBOPT_0x21
;            Write_String_6x8(10, 3, "Limit 80Km");
	CALL SUBOPT_0x26
;            Write_String_6x8(10, 2, "STREET");
	CALL SUBOPT_0x22
;            Write_String_6x8(9, 4, "->Gajang");
	__POINTW2FN _0x0,178
	CALL SUBOPT_0x21
;            Write_String_6x8(10, 5, "^Sintanjin");
	LDI  R30,LOW(5)
	ST   -Y,R30
	__POINTW2FN _0x0,187
	CALL SUBOPT_0x23
;            Write_String_6x8(9, 6, "<-Dongsedae");
	__POINTW2FN _0x0,198
_0xF5:
	RCALL _Write_String_6x8
;        break;
;    }
_0xA5:
;
;
;}
	RET
; .FEND
;#endif
;
;interrupt [TIM0_OVF] void timer0_ovf_isr(void)
; 0000 0011 {
_timer0_ovf_isr:
; .FSTART _timer0_ovf_isr
	ST   -Y,R0
	ST   -Y,R1
	ST   -Y,R15
	ST   -Y,R22
	ST   -Y,R23
	ST   -Y,R24
	ST   -Y,R25
	ST   -Y,R26
	ST   -Y,R27
	ST   -Y,R30
	ST   -Y,R31
	IN   R30,SREG
	ST   -Y,R30
; 0000 0012 
; 0000 0013    time_loop++;
	MOVW R30,R4
	ADIW R30,1
	MOVW R4,R30
; 0000 0014    if(time_loop >= 1000)
	LDI  R30,LOW(1000)
	LDI  R31,HIGH(1000)
	CP   R4,R30
	CPC  R5,R31
	BRLT _0xBA
; 0000 0015     {
; 0000 0016         glcd_dis();
	RCALL _glcd_dis
; 0000 0017         if (key6_flag == 0)sec++;
	LDS  R30,_key6_flag
	CPI  R30,0
	BRNE _0xBB
	LDS  R30,_sec
	SUBI R30,-LOW(1)
	STS  _sec,R30
; 0000 0018         led_flag = ~led_flag;
_0xBB:
	COM  R8
	COM  R9
; 0000 0019         time_loop = 0;
	CLR  R4
	CLR  R5
; 0000 001A         Counter_add();
	RCALL _Counter_add
; 0000 001B     }
; 0000 001C 
; 0000 001D 
; 0000 001E 
; 0000 001F   TCNT0 = 18;
_0xBA:
	LDI  R30,LOW(18)
	OUT  0x32,R30
; 0000 0020 }
_0xFA:
	LD   R30,Y+
	OUT  SREG,R30
	LD   R31,Y+
	LD   R30,Y+
	LD   R27,Y+
	LD   R26,Y+
	LD   R25,Y+
	LD   R24,Y+
	LD   R23,Y+
	LD   R22,Y+
	LD   R15,Y+
	LD   R1,Y+
	LD   R0,Y+
	RETI
; .FEND
;
;void main(void)
; 0000 0023 {
_main:
; .FSTART _main
; 0000 0024     TCCR0 = 0x03;
	LDI  R30,LOW(3)
	OUT  0x33,R30
; 0000 0025     TCNT0 = 128;
	LDI  R30,LOW(128)
	OUT  0x32,R30
; 0000 0026     TIMSK = 01;
	LDI  R30,LOW(1)
	OUT  0x37,R30
; 0000 0027     EICRB = 0xaa;
	LDI  R30,LOW(170)
	OUT  0x3A,R30
; 0000 0028     EIMSK = 0xf0;
	LDI  R30,LOW(240)
	OUT  0x39,R30
; 0000 0029     DDRD = 0xff;
	LDI  R30,LOW(255)
	OUT  0x11,R30
; 0000 002A     DDRE = 0x0f;
	LDI  R30,LOW(15)
	OUT  0x2,R30
; 0000 002B     DDRC = 0xff;
	LDI  R30,LOW(255)
	OUT  0x14,R30
; 0000 002C     DDRF = 0xff;
	STS  97,R30
; 0000 002D     SREG = 0x80;
	LDI  R30,LOW(128)
	OUT  0x3F,R30
; 0000 002E     PORTA.6 = 1;
	SBI  0x1B,6
; 0000 002F     uart0_init();
	RCALL _uart0_init
; 0000 0030     Counter_add();
	RCALL _Counter_add
; 0000 0031     func_init();
	RCALL _func_init
; 0000 0032 
; 0000 0033 
; 0000 0034 while (1)
_0xBE:
; 0000 0035       {
; 0000 0036 
; 0000 0037           delay_ms(1);
	LDI  R26,LOW(1)
	LDI  R27,0
	CALL _delay_ms
; 0000 0038           lcd_loop++;
	LDI  R26,LOW(_lcd_loop)
	LDI  R27,HIGH(_lcd_loop)
	CALL SUBOPT_0x27
; 0000 0039           if(cnt1 > 60)fnd_dis((cnt1 - 60), 0x04, 0x08);
	LDS  R26,_cnt1
	CPI  R26,LOW(0x3D)
	BRLO _0xC1
	LDS  R30,_cnt1
	SUBI R30,LOW(60)
	ST   -Y,R30
	LDI  R30,LOW(4)
	ST   -Y,R30
	LDI  R26,LOW(8)
	RJMP _0xF9
; 0000 003A           else if(cnt1 > 0)fnd_dis(cnt1, 0x10, 0x20);
_0xC1:
	LDS  R26,_cnt1
	CPI  R26,LOW(0x1)
	BRLO _0xC3
	LDS  R30,_cnt1
	ST   -Y,R30
	LDI  R30,LOW(16)
	ST   -Y,R30
	LDI  R26,LOW(32)
	RJMP _0xF9
; 0000 003B           else if(cnt2 > 60)fnd_dis((cnt2 - 60), 0x40, 0x80);
_0xC3:
	LDS  R26,_cnt2
	CPI  R26,LOW(0x3D)
	BRLO _0xC5
	LDS  R30,_cnt2
	SUBI R30,LOW(60)
	ST   -Y,R30
	LDI  R30,LOW(64)
	ST   -Y,R30
	LDI  R26,LOW(128)
	RJMP _0xF9
; 0000 003C           else fnd_dis(cnt2, 0x01, 02);
_0xC5:
	LDS  R30,_cnt2
	ST   -Y,R30
	LDI  R30,LOW(1)
	ST   -Y,R30
	LDI  R26,LOW(2)
_0xF9:
	RCALL _fnd_dis
; 0000 003D 
; 0000 003E           if(key4_flag == 1){
	LDI  R30,LOW(1)
	CP   R30,R13
	BRNE _0xC7
; 0000 003F             key4_flag = 0;
	CLR  R13
; 0000 0040             if(key6_flag == 1){
	LDS  R26,_key6_flag
	CPI  R26,LOW(0x1)
	BRNE _0xC8
; 0000 0041                 switch(time_count)
	MOVW R30,R10
; 0000 0042                 {
; 0000 0043                     case 0:
	SBIW R30,0
	BRNE _0xCC
; 0000 0044                         hour++;
	CALL SUBOPT_0x28
; 0000 0045                         if(hour == 24)hour = 0;
	BRNE _0xCD
	LDI  R30,LOW(0)
	STS  _hour,R30
; 0000 0046                     break;
_0xCD:
	RJMP _0xCB
; 0000 0047 
; 0000 0048                     case 1:
_0xCC:
	CPI  R30,LOW(0x1)
	LDI  R26,HIGH(0x1)
	CPC  R31,R26
	BRNE _0xCE
; 0000 0049                         min++;
	CALL SUBOPT_0x29
; 0000 004A                         if(min == 60)min = 0;
	BRNE _0xCF
	LDI  R30,LOW(0)
	STS  _min,R30
; 0000 004B                     break;
_0xCF:
	RJMP _0xCB
; 0000 004C 
; 0000 004D                     case 2:
_0xCE:
	CPI  R30,LOW(0x2)
	LDI  R26,HIGH(0x2)
	CPC  R31,R26
	BRNE _0xCB
; 0000 004E                         sec++;
	LDS  R30,_sec
	SUBI R30,-LOW(1)
	STS  _sec,R30
; 0000 004F                         if(sec == 60)sec = 0;
	LDS  R26,_sec
	CPI  R26,LOW(0x3C)
	BRNE _0xD1
	LDI  R30,LOW(0)
	STS  _sec,R30
; 0000 0050                     break;
_0xD1:
; 0000 0051                 }
_0xCB:
; 0000 0052             }
; 0000 0053             else{
	RJMP _0xD2
_0xC8:
; 0000 0054                 load++;
	LDS  R30,_load
	SUBI R30,-LOW(1)
	STS  _load,R30
; 0000 0055                 if(load == 5) load = 1;
	LDS  R26,_load
	CPI  R26,LOW(0x5)
	BRNE _0xD3
	LDI  R30,LOW(1)
	STS  _load,R30
; 0000 0056             }
_0xD3:
_0xD2:
; 0000 0057           }
; 0000 0058 
; 0000 0059           if(key5_flag == 1){
_0xC7:
	LDI  R30,LOW(1)
	CP   R30,R12
	BREQ PC+2
	RJMP _0xD4
; 0000 005A             key5_flag = 0;
	CLR  R12
; 0000 005B             if(key6_flag == 1){
	LDS  R26,_key6_flag
	CPI  R26,LOW(0x1)
	BRNE _0xD5
; 0000 005C                 switch(time_count)
	MOVW R30,R10
; 0000 005D                 {
; 0000 005E                     case 0:
	SBIW R30,0
	BRNE _0xD9
; 0000 005F                         hour--;
	LDS  R30,_hour
	SUBI R30,LOW(1)
	STS  _hour,R30
; 0000 0060                         if(hour == 24)hour = 0;
	LDS  R26,_hour
	CPI  R26,LOW(0x18)
	BRNE _0xDA
	LDI  R30,LOW(0)
	STS  _hour,R30
; 0000 0061                     break;
_0xDA:
	RJMP _0xD8
; 0000 0062 
; 0000 0063                     case 1:
_0xD9:
	CPI  R30,LOW(0x1)
	LDI  R26,HIGH(0x1)
	CPC  R31,R26
	BRNE _0xDB
; 0000 0064                         min--;
	LDS  R30,_min
	SUBI R30,LOW(1)
	STS  _min,R30
; 0000 0065                         if(min == 60)min = 0;
	LDS  R26,_min
	CPI  R26,LOW(0x3C)
	BRNE _0xDC
	LDI  R30,LOW(0)
	STS  _min,R30
; 0000 0066                     break;
_0xDC:
	RJMP _0xD8
; 0000 0067 
; 0000 0068                     case 2:
_0xDB:
	CPI  R30,LOW(0x2)
	LDI  R26,HIGH(0x2)
	CPC  R31,R26
	BRNE _0xD8
; 0000 0069                         sec--;
	LDS  R30,_sec
	SUBI R30,LOW(1)
	STS  _sec,R30
; 0000 006A                         if(sec == 60)sec = 0;
	LDS  R26,_sec
	CPI  R26,LOW(0x3C)
	BRNE _0xDE
	LDI  R30,LOW(0)
	STS  _sec,R30
; 0000 006B                     break;
_0xDE:
; 0000 006C                 }
_0xD8:
; 0000 006D             }
; 0000 006E             else{
	RJMP _0xDF
_0xD5:
; 0000 006F             led_count++;
	MOVW R30,R6
	ADIW R30,1
	MOVW R6,R30
; 0000 0070                 if(led_count == 4) led_count =0;
	LDI  R30,LOW(4)
	LDI  R31,HIGH(4)
	CP   R30,R6
	CPC  R31,R7
	BRNE _0xE0
	CLR  R6
	CLR  R7
; 0000 0071                 if(led_count == 0){
_0xE0:
	MOV  R0,R6
	OR   R0,R7
	BRNE _0xE1
; 0000 0072                     cnt1 = 120;
	LDI  R30,LOW(120)
	CALL SUBOPT_0x2A
; 0000 0073                     cnt2 = 0;
; 0000 0074                     Counter_add();
; 0000 0075                 }
; 0000 0076                 if(led_count == 1){
_0xE1:
	LDI  R30,LOW(1)
	LDI  R31,HIGH(1)
	CP   R30,R6
	CPC  R31,R7
	BRNE _0xE2
; 0000 0077                     cnt1 = 60;
	LDI  R30,LOW(60)
	CALL SUBOPT_0x2A
; 0000 0078                     cnt2 = 0;
; 0000 0079                     Counter_add();
; 0000 007A                 }
; 0000 007B                 if(led_count == 2){
_0xE2:
	LDI  R30,LOW(2)
	LDI  R31,HIGH(2)
	CP   R30,R6
	CPC  R31,R7
	BRNE _0xE3
; 0000 007C                     cnt1 = 0;
	LDI  R30,LOW(0)
	STS  _cnt1,R30
; 0000 007D                     cnt2 = 120;
	LDI  R30,LOW(120)
	STS  _cnt2,R30
; 0000 007E                     Counter_add();
	RCALL _Counter_add
; 0000 007F                 }
; 0000 0080                 if(led_count == 3){
_0xE3:
	LDI  R30,LOW(3)
	LDI  R31,HIGH(3)
	CP   R30,R6
	CPC  R31,R7
	BRNE _0xE4
; 0000 0081                     cnt1 = 0;
	LDI  R30,LOW(0)
	STS  _cnt1,R30
; 0000 0082                     cnt2 = 60;
	LDI  R30,LOW(60)
	STS  _cnt2,R30
; 0000 0083                     Counter_add();
	RCALL _Counter_add
; 0000 0084                 }
; 0000 0085             }
_0xE4:
_0xDF:
; 0000 0086 
; 0000 0087            }
; 0000 0088 
; 0000 0089           if(key7_flag == 1){
_0xD4:
	LDS  R26,_key7_flag
	CPI  R26,LOW(0x1)
	BRNE _0xE5
; 0000 008A             key7_flag = 0;
	LDI  R30,LOW(0)
	STS  _key7_flag,R30
; 0000 008B             key6_flag = 0;
	STS  _key6_flag,R30
; 0000 008C           }
; 0000 008D 
; 0000 008E           if(sec >= 60){
_0xE5:
	LDS  R26,_sec
	CPI  R26,LOW(0x3C)
	BRLO _0xE6
; 0000 008F             sec = 0; min++;
	LDI  R30,LOW(0)
	STS  _sec,R30
	CALL SUBOPT_0x29
; 0000 0090             if(min >= 60){
	BRLO _0xE7
; 0000 0091                 min = 0; hour++;
	LDI  R30,LOW(0)
	STS  _min,R30
	CALL SUBOPT_0x28
; 0000 0092                 if(hour >= 24) hour = 0;
	BRLO _0xE8
	LDI  R30,LOW(0)
	STS  _hour,R30
; 0000 0093             }
_0xE8:
; 0000 0094           }
_0xE7:
; 0000 0095 
; 0000 0096 
; 0000 0097 
; 0000 0098       }
_0xE6:
	RJMP _0xBE
; 0000 0099 }
_0xE9:
	RJMP _0xE9
; .FEND
	#ifndef __SLEEP_DEFINED__
	#define __SLEEP_DEFINED__
	.EQU __se_bit=0x20
	.EQU __sm_mask=0x1C
	.EQU __sm_powerdown=0x10
	.EQU __sm_powersave=0x18
	.EQU __sm_standby=0x14
	.EQU __sm_ext_standby=0x1C
	.EQU __sm_adc_noise_red=0x08
	.SET power_ctrl_reg=mcucr
	#endif

	.CSEG
_putchar:
; .FSTART _putchar
	ST   -Y,R26
putchar0:
     sbis usr,udre
     rjmp putchar0
     ld   r30,y
     out  udr,r30
_0x2060004:
	ADIW R28,1
	RET
; .FEND
_put_usart_G100:
; .FSTART _put_usart_G100
	ST   -Y,R27
	ST   -Y,R26
	LDD  R26,Y+2
	RCALL _putchar
	LD   R26,Y
	LDD  R27,Y+1
	CALL SUBOPT_0x27
_0x2060003:
	ADIW R28,3
	RET
; .FEND
_put_buff_G100:
; .FSTART _put_buff_G100
	ST   -Y,R27
	ST   -Y,R26
	ST   -Y,R17
	ST   -Y,R16
	LDD  R26,Y+2
	LDD  R27,Y+2+1
	ADIW R26,2
	CALL __GETW1P
	SBIW R30,0
	BREQ _0x2000010
	LDD  R26,Y+2
	LDD  R27,Y+2+1
	ADIW R26,4
	CALL __GETW1P
	MOVW R16,R30
	SBIW R30,0
	BREQ _0x2000012
	__CPWRN 16,17,2
	BRLO _0x2000013
	MOVW R30,R16
	SBIW R30,1
	MOVW R16,R30
	__PUTW1SNS 2,4
_0x2000012:
	LDD  R26,Y+2
	LDD  R27,Y+2+1
	ADIW R26,2
	CALL SUBOPT_0x27
	SBIW R30,1
	LDD  R26,Y+4
	STD  Z+0,R26
_0x2000013:
	LDD  R26,Y+2
	LDD  R27,Y+2+1
	CALL __GETW1P
	TST  R31
	BRMI _0x2000014
	CALL SUBOPT_0x27
_0x2000014:
	RJMP _0x2000015
_0x2000010:
	LDD  R26,Y+2
	LDD  R27,Y+2+1
	LDI  R30,LOW(65535)
	LDI  R31,HIGH(65535)
	ST   X+,R30
	ST   X,R31
_0x2000015:
	LDD  R17,Y+1
	LDD  R16,Y+0
_0x2060002:
	ADIW R28,5
	RET
; .FEND
__print_G100:
; .FSTART __print_G100
	ST   -Y,R27
	ST   -Y,R26
	SBIW R28,6
	CALL __SAVELOCR6
	LDI  R17,0
	LDD  R26,Y+12
	LDD  R27,Y+12+1
	LDI  R30,LOW(0)
	LDI  R31,HIGH(0)
	ST   X+,R30
	ST   X,R31
_0x2000016:
	LDD  R30,Y+18
	LDD  R31,Y+18+1
	ADIW R30,1
	STD  Y+18,R30
	STD  Y+18+1,R31
	SBIW R30,1
	LPM  R30,Z
	MOV  R18,R30
	CPI  R30,0
	BRNE PC+2
	RJMP _0x2000018
	MOV  R30,R17
	CPI  R30,0
	BRNE _0x200001C
	CPI  R18,37
	BRNE _0x200001D
	LDI  R17,LOW(1)
	RJMP _0x200001E
_0x200001D:
	CALL SUBOPT_0x2B
_0x200001E:
	RJMP _0x200001B
_0x200001C:
	CPI  R30,LOW(0x1)
	BRNE _0x200001F
	CPI  R18,37
	BRNE _0x2000020
	CALL SUBOPT_0x2B
	RJMP _0x20000CC
_0x2000020:
	LDI  R17,LOW(2)
	LDI  R20,LOW(0)
	LDI  R16,LOW(0)
	CPI  R18,45
	BRNE _0x2000021
	LDI  R16,LOW(1)
	RJMP _0x200001B
_0x2000021:
	CPI  R18,43
	BRNE _0x2000022
	LDI  R20,LOW(43)
	RJMP _0x200001B
_0x2000022:
	CPI  R18,32
	BRNE _0x2000023
	LDI  R20,LOW(32)
	RJMP _0x200001B
_0x2000023:
	RJMP _0x2000024
_0x200001F:
	CPI  R30,LOW(0x2)
	BRNE _0x2000025
_0x2000024:
	LDI  R21,LOW(0)
	LDI  R17,LOW(3)
	CPI  R18,48
	BRNE _0x2000026
	ORI  R16,LOW(128)
	RJMP _0x200001B
_0x2000026:
	RJMP _0x2000027
_0x2000025:
	CPI  R30,LOW(0x3)
	BREQ PC+2
	RJMP _0x200001B
_0x2000027:
	CPI  R18,48
	BRLO _0x200002A
	CPI  R18,58
	BRLO _0x200002B
_0x200002A:
	RJMP _0x2000029
_0x200002B:
	LDI  R26,LOW(10)
	MUL  R21,R26
	MOV  R21,R0
	MOV  R30,R18
	SUBI R30,LOW(48)
	ADD  R21,R30
	RJMP _0x200001B
_0x2000029:
	MOV  R30,R18
	CPI  R30,LOW(0x63)
	BRNE _0x200002F
	CALL SUBOPT_0x2C
	LDD  R30,Y+16
	LDD  R31,Y+16+1
	LDD  R26,Z+4
	ST   -Y,R26
	CALL SUBOPT_0x2D
	RJMP _0x2000030
_0x200002F:
	CPI  R30,LOW(0x73)
	BRNE _0x2000032
	CALL SUBOPT_0x2C
	CALL SUBOPT_0x2E
	CALL _strlen
	MOV  R17,R30
	RJMP _0x2000033
_0x2000032:
	CPI  R30,LOW(0x70)
	BRNE _0x2000035
	CALL SUBOPT_0x2C
	CALL SUBOPT_0x2E
	CALL _strlenf
	MOV  R17,R30
	ORI  R16,LOW(8)
_0x2000033:
	ORI  R16,LOW(2)
	ANDI R16,LOW(127)
	LDI  R19,LOW(0)
	RJMP _0x2000036
_0x2000035:
	CPI  R30,LOW(0x64)
	BREQ _0x2000039
	CPI  R30,LOW(0x69)
	BRNE _0x200003A
_0x2000039:
	ORI  R16,LOW(4)
	RJMP _0x200003B
_0x200003A:
	CPI  R30,LOW(0x75)
	BRNE _0x200003C
_0x200003B:
	LDI  R30,LOW(_tbl10_G100*2)
	LDI  R31,HIGH(_tbl10_G100*2)
	STD  Y+6,R30
	STD  Y+6+1,R31
	LDI  R17,LOW(5)
	RJMP _0x200003D
_0x200003C:
	CPI  R30,LOW(0x58)
	BRNE _0x200003F
	ORI  R16,LOW(8)
	RJMP _0x2000040
_0x200003F:
	CPI  R30,LOW(0x78)
	BREQ PC+2
	RJMP _0x2000071
_0x2000040:
	LDI  R30,LOW(_tbl16_G100*2)
	LDI  R31,HIGH(_tbl16_G100*2)
	STD  Y+6,R30
	STD  Y+6+1,R31
	LDI  R17,LOW(4)
_0x200003D:
	SBRS R16,2
	RJMP _0x2000042
	CALL SUBOPT_0x2C
	CALL SUBOPT_0x2F
	LDD  R26,Y+11
	TST  R26
	BRPL _0x2000043
	LDD  R30,Y+10
	LDD  R31,Y+10+1
	CALL __ANEGW1
	STD  Y+10,R30
	STD  Y+10+1,R31
	LDI  R20,LOW(45)
_0x2000043:
	CPI  R20,0
	BREQ _0x2000044
	SUBI R17,-LOW(1)
	RJMP _0x2000045
_0x2000044:
	ANDI R16,LOW(251)
_0x2000045:
	RJMP _0x2000046
_0x2000042:
	CALL SUBOPT_0x2C
	CALL SUBOPT_0x2F
_0x2000046:
_0x2000036:
	SBRC R16,0
	RJMP _0x2000047
_0x2000048:
	CP   R17,R21
	BRSH _0x200004A
	SBRS R16,7
	RJMP _0x200004B
	SBRS R16,2
	RJMP _0x200004C
	ANDI R16,LOW(251)
	MOV  R18,R20
	SUBI R17,LOW(1)
	RJMP _0x200004D
_0x200004C:
	LDI  R18,LOW(48)
_0x200004D:
	RJMP _0x200004E
_0x200004B:
	LDI  R18,LOW(32)
_0x200004E:
	CALL SUBOPT_0x2B
	SUBI R21,LOW(1)
	RJMP _0x2000048
_0x200004A:
_0x2000047:
	MOV  R19,R17
	SBRS R16,1
	RJMP _0x200004F
_0x2000050:
	CPI  R19,0
	BREQ _0x2000052
	SBRS R16,3
	RJMP _0x2000053
	LDD  R30,Y+6
	LDD  R31,Y+6+1
	LPM  R18,Z+
	STD  Y+6,R30
	STD  Y+6+1,R31
	RJMP _0x2000054
_0x2000053:
	LDD  R26,Y+6
	LDD  R27,Y+6+1
	LD   R18,X+
	STD  Y+6,R26
	STD  Y+6+1,R27
_0x2000054:
	CALL SUBOPT_0x2B
	CPI  R21,0
	BREQ _0x2000055
	SUBI R21,LOW(1)
_0x2000055:
	SUBI R19,LOW(1)
	RJMP _0x2000050
_0x2000052:
	RJMP _0x2000056
_0x200004F:
_0x2000058:
	LDI  R18,LOW(48)
	LDD  R30,Y+6
	LDD  R31,Y+6+1
	CALL __GETW1PF
	STD  Y+8,R30
	STD  Y+8+1,R31
	LDD  R30,Y+6
	LDD  R31,Y+6+1
	ADIW R30,2
	STD  Y+6,R30
	STD  Y+6+1,R31
_0x200005A:
	LDD  R30,Y+8
	LDD  R31,Y+8+1
	LDD  R26,Y+10
	LDD  R27,Y+10+1
	CP   R26,R30
	CPC  R27,R31
	BRLO _0x200005C
	SUBI R18,-LOW(1)
	LDD  R26,Y+8
	LDD  R27,Y+8+1
	LDD  R30,Y+10
	LDD  R31,Y+10+1
	SUB  R30,R26
	SBC  R31,R27
	STD  Y+10,R30
	STD  Y+10+1,R31
	RJMP _0x200005A
_0x200005C:
	CPI  R18,58
	BRLO _0x200005D
	SBRS R16,3
	RJMP _0x200005E
	SUBI R18,-LOW(7)
	RJMP _0x200005F
_0x200005E:
	SUBI R18,-LOW(39)
_0x200005F:
_0x200005D:
	SBRC R16,4
	RJMP _0x2000061
	CPI  R18,49
	BRSH _0x2000063
	LDD  R26,Y+8
	LDD  R27,Y+8+1
	SBIW R26,1
	BRNE _0x2000062
_0x2000063:
	RJMP _0x20000CD
_0x2000062:
	CP   R21,R19
	BRLO _0x2000067
	SBRS R16,0
	RJMP _0x2000068
_0x2000067:
	RJMP _0x2000066
_0x2000068:
	LDI  R18,LOW(32)
	SBRS R16,7
	RJMP _0x2000069
	LDI  R18,LOW(48)
_0x20000CD:
	ORI  R16,LOW(16)
	SBRS R16,2
	RJMP _0x200006A
	ANDI R16,LOW(251)
	ST   -Y,R20
	CALL SUBOPT_0x2D
	CPI  R21,0
	BREQ _0x200006B
	SUBI R21,LOW(1)
_0x200006B:
_0x200006A:
_0x2000069:
_0x2000061:
	CALL SUBOPT_0x2B
	CPI  R21,0
	BREQ _0x200006C
	SUBI R21,LOW(1)
_0x200006C:
_0x2000066:
	SUBI R19,LOW(1)
	LDD  R26,Y+8
	LDD  R27,Y+8+1
	SBIW R26,2
	BRLO _0x2000059
	RJMP _0x2000058
_0x2000059:
_0x2000056:
	SBRS R16,0
	RJMP _0x200006D
_0x200006E:
	CPI  R21,0
	BREQ _0x2000070
	SUBI R21,LOW(1)
	LDI  R30,LOW(32)
	ST   -Y,R30
	CALL SUBOPT_0x2D
	RJMP _0x200006E
_0x2000070:
_0x200006D:
_0x2000071:
_0x2000030:
_0x20000CC:
	LDI  R17,LOW(0)
_0x200001B:
	RJMP _0x2000016
_0x2000018:
	LDD  R26,Y+12
	LDD  R27,Y+12+1
	CALL __GETW1P
	CALL __LOADLOCR6
	ADIW R28,20
	RET
; .FEND
_sprintf:
; .FSTART _sprintf
	PUSH R15
	MOV  R15,R24
	SBIW R28,6
	CALL __SAVELOCR4
	CALL SUBOPT_0x30
	SBIW R30,0
	BRNE _0x2000072
	LDI  R30,LOW(65535)
	LDI  R31,HIGH(65535)
	RJMP _0x2060001
_0x2000072:
	MOVW R26,R28
	ADIW R26,6
	CALL __ADDW2R15
	MOVW R16,R26
	CALL SUBOPT_0x30
	STD  Y+6,R30
	STD  Y+6+1,R31
	LDI  R30,LOW(0)
	STD  Y+8,R30
	STD  Y+8+1,R30
	MOVW R26,R28
	ADIW R26,10
	CALL SUBOPT_0x31
	LDI  R30,LOW(_put_buff_G100)
	LDI  R31,HIGH(_put_buff_G100)
	ST   -Y,R31
	ST   -Y,R30
	MOVW R26,R28
	ADIW R26,10
	RCALL __print_G100
	MOVW R18,R30
	LDD  R26,Y+6
	LDD  R27,Y+6+1
	LDI  R30,LOW(0)
	ST   X,R30
	MOVW R30,R18
_0x2060001:
	CALL __LOADLOCR4
	ADIW R28,10
	POP  R15
	RET
; .FEND
_printf:
; .FSTART _printf
	PUSH R15
	MOV  R15,R24
	SBIW R28,6
	ST   -Y,R17
	ST   -Y,R16
	MOVW R26,R28
	ADIW R26,4
	CALL __ADDW2R15
	MOVW R16,R26
	LDI  R30,LOW(0)
	STD  Y+4,R30
	STD  Y+4+1,R30
	STD  Y+6,R30
	STD  Y+6+1,R30
	MOVW R26,R28
	ADIW R26,8
	CALL SUBOPT_0x31
	LDI  R30,LOW(_put_usart_G100)
	LDI  R31,HIGH(_put_usart_G100)
	ST   -Y,R31
	ST   -Y,R30
	MOVW R26,R28
	ADIW R26,8
	RCALL __print_G100
	LDD  R17,Y+1
	LDD  R16,Y+0
	ADIW R28,8
	POP  R15
	RET
; .FEND

	.CSEG

	.CSEG
_strlen:
; .FSTART _strlen
	ST   -Y,R27
	ST   -Y,R26
    ld   r26,y+
    ld   r27,y+
    clr  r30
    clr  r31
strlen0:
    ld   r22,x+
    tst  r22
    breq strlen1
    adiw r30,1
    rjmp strlen0
strlen1:
    ret
; .FEND
_strlenf:
; .FSTART _strlenf
	ST   -Y,R27
	ST   -Y,R26
    clr  r26
    clr  r27
    ld   r30,y+
    ld   r31,y+
strlenf0:
	lpm  r0,z+
    tst  r0
    breq strlenf1
    adiw r26,1
    rjmp strlenf0
strlenf1:
    movw r30,r26
    ret
; .FEND

	.DSEG
_key6_flag:
	.BYTE 0x1
_key7_flag:
	.BYTE 0x1
_cnt1:
	.BYTE 0x1
_cnt2:
	.BYTE 0x1
_led_dis1:
	.BYTE 0xD
_led_dis2:
	.BYTE 0xD
_led_add:
	.BYTE 0x14
_i:
	.BYTE 0x2
_k:
	.BYTE 0x2
_cnt:
	.BYTE 0x2
_scan:
	.BYTE 0x1
_lcd_loop:
	.BYTE 0x2
_sec:
	.BYTE 0x1
_min:
	.BYTE 0x1
_hour:
	.BYTE 0x1
_load:
	.BYTE 0x1
_buf:
	.BYTE 0x3

	.CSEG
;OPTIMIZER ADDED SUBROUTINE, CALLED 3 TIMES, CODE SIZE REDUCTION:1 WORDS
SUBOPT_0x0:
	LDS  R30,_k
	LDS  R31,_k+1
	RET

;OPTIMIZER ADDED SUBROUTINE, CALLED 2 TIMES, CODE SIZE REDUCTION:2 WORDS
SUBOPT_0x1:
	LDI  R26,LOW(_k)
	LDI  R27,HIGH(_k)
	LD   R30,X+
	LD   R31,X+
	ADIW R30,1
	ST   -X,R31
	ST   -X,R30
	RET

;OPTIMIZER ADDED SUBROUTINE, CALLED 3 TIMES, CODE SIZE REDUCTION:1 WORDS
SUBOPT_0x2:
	LDI  R30,LOW(1)
	__PUTB1MN _led_dis1,6
	RET

;OPTIMIZER ADDED SUBROUTINE, CALLED 3 TIMES, CODE SIZE REDUCTION:1 WORDS
SUBOPT_0x3:
	LDI  R30,LOW(1)
	__PUTB1MN _led_dis2,1
	RET

;OPTIMIZER ADDED SUBROUTINE, CALLED 2 TIMES, CODE SIZE REDUCTION:1 WORDS
SUBOPT_0x4:
	__PUTB1MN _led_dis2,6
	LDI  R30,LOW(1)
	__PUTB1MN _led_dis2,7
	RET

;OPTIMIZER ADDED SUBROUTINE, CALLED 7 TIMES, CODE SIZE REDUCTION:9 WORDS
SUBOPT_0x5:
	LDS  R26,_i
	LDS  R27,_i+1
	RET

;OPTIMIZER ADDED SUBROUTINE, CALLED 3 TIMES, CODE SIZE REDUCTION:1 WORDS
SUBOPT_0x6:
	LSL  R30
	ROL  R31
	ADD  R26,R30
	ADC  R27,R31
	RET

;OPTIMIZER ADDED SUBROUTINE, CALLED 4 TIMES, CODE SIZE REDUCTION:12 WORDS
SUBOPT_0x7:
	LDI  R26,LOW(_i)
	LDI  R27,HIGH(_i)
	LD   R30,X+
	LD   R31,X+
	ADIW R30,1
	ST   -X,R31
	ST   -X,R30
	RET

;OPTIMIZER ADDED SUBROUTINE, CALLED 2 TIMES, CODE SIZE REDUCTION:1 WORDS
SUBOPT_0x8:
	LDI  R30,LOW(1)
	LDI  R31,HIGH(1)
	STS  _i,R30
	STS  _i+1,R31
	RET

;OPTIMIZER ADDED SUBROUTINE, CALLED 5 TIMES, CODE SIZE REDUCTION:5 WORDS
SUBOPT_0x9:
	LDS  R30,_i
	LDS  R31,_i+1
	RET

;OPTIMIZER ADDED SUBROUTINE, CALLED 2 TIMES, CODE SIZE REDUCTION:10 WORDS
SUBOPT_0xA:
	LSL  R30
	ROL  R31
	ADD  R30,R26
	ADC  R31,R27
	RCALL SUBOPT_0x5
	STD  Z+0,R26
	STD  Z+1,R27
	LDI  R26,LOW(_cnt)
	LDI  R27,HIGH(_cnt)
	LD   R30,X+
	LD   R31,X+
	ADIW R30,1
	ST   -X,R31
	ST   -X,R30
	RET

;OPTIMIZER ADDED SUBROUTINE, CALLED 2 TIMES, CODE SIZE REDUCTION:11 WORDS
SUBOPT_0xB:
	CALL __CWD1
	CALL __PUTPARD1
	LDI  R24,4
	CALL _printf
	ADIW R28,6
	__POINTW1FN _0x0,14
	ST   -Y,R31
	ST   -Y,R30
	LDI  R24,0
	CALL _printf
	ADIW R28,2
	RET

;OPTIMIZER ADDED SUBROUTINE, CALLED 4 TIMES, CODE SIZE REDUCTION:9 WORDS
SUBOPT_0xC:
	CLR  R31
	CLR  R22
	CLR  R23
	CALL __PUTPARD1
	LDI  R24,4
	RET

;OPTIMIZER ADDED SUBROUTINE, CALLED 4 TIMES, CODE SIZE REDUCTION:33 WORDS
SUBOPT_0xD:
	ST   -Y,R0
	ST   -Y,R1
	ST   -Y,R15
	ST   -Y,R22
	ST   -Y,R23
	ST   -Y,R24
	ST   -Y,R25
	ST   -Y,R26
	ST   -Y,R27
	ST   -Y,R30
	ST   -Y,R31
	IN   R30,SREG
	ST   -Y,R30
	IN   R30,0x39
	RET

;OPTIMIZER ADDED SUBROUTINE, CALLED 4 TIMES, CODE SIZE REDUCTION:3 WORDS
SUBOPT_0xE:
	LDI  R26,LOW(5)
	LDI  R27,0
	JMP  _delay_ms

;OPTIMIZER ADDED SUBROUTINE, CALLED 4 TIMES, CODE SIZE REDUCTION:3 WORDS
SUBOPT_0xF:
	LDI  R26,LOW(2)
	LDI  R27,0
	JMP  _delay_ms

;OPTIMIZER ADDED SUBROUTINE, CALLED 2 TIMES, CODE SIZE REDUCTION:3 WORDS
SUBOPT_0x10:
	ST   -Y,R17
	LDI  R30,LOW(7)
	SUB  R30,R16
	MOV  R26,R30
	CALL _lcd_gotoxy
	LDD  R26,Y+4
	CPI  R26,LOW(0x1)
	RET

;OPTIMIZER ADDED SUBROUTINE, CALLED 3 TIMES, CODE SIZE REDUCTION:9 WORDS
SUBOPT_0x11:
	LDI  R30,LOW(_buf)
	LDI  R31,HIGH(_buf)
	ST   -Y,R31
	ST   -Y,R30
	__POINTW1FN _0x0,28
	ST   -Y,R31
	ST   -Y,R30
	RET

;OPTIMIZER ADDED SUBROUTINE, CALLED 3 TIMES, CODE SIZE REDUCTION:5 WORDS
SUBOPT_0x12:
	CALL _sprintf
	ADIW R28,8
	LDS  R26,_key6_flag
	CPI  R26,LOW(0x1)
	RET

;OPTIMIZER ADDED SUBROUTINE, CALLED 3 TIMES, CODE SIZE REDUCTION:7 WORDS
SUBOPT_0x13:
	MOVW R26,R8
	LDI  R30,LOW(0)
	LDI  R31,HIGH(0)
	CALL __EQW12
	MOV  R0,R30
	MOVW R26,R10
	RET

;OPTIMIZER ADDED SUBROUTINE, CALLED 3 TIMES, CODE SIZE REDUCTION:1 WORDS
SUBOPT_0x14:
	LDI  R30,LOW(12)
	ST   -Y,R30
	LDI  R30,LOW(0)
	ST   -Y,R30
	RET

;OPTIMIZER ADDED SUBROUTINE, CALLED 3 TIMES, CODE SIZE REDUCTION:5 WORDS
SUBOPT_0x15:
	CALL _Write_Char
	LDI  R30,LOW(13)
	ST   -Y,R30
	LDI  R30,LOW(0)
	ST   -Y,R30
	RET

;OPTIMIZER ADDED SUBROUTINE, CALLED 2 TIMES, CODE SIZE REDUCTION:2 WORDS
SUBOPT_0x16:
	LDI  R30,LOW(14)
	ST   -Y,R30
	LDI  R30,LOW(0)
	ST   -Y,R30
	LDI  R26,LOW(58)
	JMP  _Write_Char

;OPTIMIZER ADDED SUBROUTINE, CALLED 3 TIMES, CODE SIZE REDUCTION:1 WORDS
SUBOPT_0x17:
	__GETB2MN _buf,1
	JMP  _Write_Char

;OPTIMIZER ADDED SUBROUTINE, CALLED 3 TIMES, CODE SIZE REDUCTION:1 WORDS
SUBOPT_0x18:
	LDI  R30,LOW(15)
	ST   -Y,R30
	LDI  R30,LOW(0)
	ST   -Y,R30
	RET

;OPTIMIZER ADDED SUBROUTINE, CALLED 3 TIMES, CODE SIZE REDUCTION:5 WORDS
SUBOPT_0x19:
	CALL _Write_Char
	LDI  R30,LOW(16)
	ST   -Y,R30
	LDI  R30,LOW(0)
	ST   -Y,R30
	RET

;OPTIMIZER ADDED SUBROUTINE, CALLED 2 TIMES, CODE SIZE REDUCTION:2 WORDS
SUBOPT_0x1A:
	LDI  R30,LOW(17)
	ST   -Y,R30
	LDI  R30,LOW(0)
	ST   -Y,R30
	LDI  R26,LOW(58)
	JMP  _Write_Char

;OPTIMIZER ADDED SUBROUTINE, CALLED 3 TIMES, CODE SIZE REDUCTION:1 WORDS
SUBOPT_0x1B:
	LDI  R30,LOW(18)
	ST   -Y,R30
	LDI  R30,LOW(0)
	ST   -Y,R30
	RET

;OPTIMIZER ADDED SUBROUTINE, CALLED 3 TIMES, CODE SIZE REDUCTION:5 WORDS
SUBOPT_0x1C:
	CALL _Write_Char
	LDI  R30,LOW(19)
	ST   -Y,R30
	LDI  R30,LOW(0)
	ST   -Y,R30
	RET

;OPTIMIZER ADDED SUBROUTINE, CALLED 3 TIMES, CODE SIZE REDUCTION:17 WORDS
SUBOPT_0x1D:
	LDS  R26,_hour
	LDI  R30,LOW(9)
	CALL __GEB12U
	MOV  R0,R30
	LDI  R30,LOW(18)
	CALL __LEB12U
	AND  R30,R0
	RET

;OPTIMIZER ADDED SUBROUTINE, CALLED 3 TIMES, CODE SIZE REDUCTION:17 WORDS
SUBOPT_0x1E:
	LDS  R26,_hour
	LDI  R30,LOW(12)
	CALL __GEB12U
	MOV  R0,R30
	LDI  R30,LOW(14)
	CALL __LEB12U
	AND  R30,R0
	RET

;OPTIMIZER ADDED SUBROUTINE, CALLED 2 TIMES, CODE SIZE REDUCTION:21 WORDS
SUBOPT_0x1F:
	LDS  R26,_hour
	LDI  R30,LOW(8)
	CALL __GEB12U
	MOV  R0,R30
	LDI  R30,LOW(9)
	CALL __LTB12U
	AND  R30,R0
	MOV  R1,R30
	LDI  R30,LOW(18)
	CALL __GTB12U
	MOV  R0,R30
	LDI  R30,LOW(20)
	CALL __LEB12U
	AND  R30,R0
	OR   R30,R1
	RET

;OPTIMIZER ADDED SUBROUTINE, CALLED 4 TIMES, CODE SIZE REDUCTION:9 WORDS
SUBOPT_0x20:
	CALL _disp
	LDI  R30,LOW(10)
	ST   -Y,R30
	LDI  R30,LOW(1)
	ST   -Y,R30
	RET

;OPTIMIZER ADDED SUBROUTINE, CALLED 12 TIMES, CODE SIZE REDUCTION:19 WORDS
SUBOPT_0x21:
	CALL _Write_String_6x8
	LDI  R30,LOW(10)
	ST   -Y,R30
	RET

;OPTIMIZER ADDED SUBROUTINE, CALLED 4 TIMES, CODE SIZE REDUCTION:21 WORDS
SUBOPT_0x22:
	LDI  R30,LOW(2)
	ST   -Y,R30
	__POINTW2FN _0x0,50
	CALL _Write_String_6x8
	LDI  R30,LOW(9)
	ST   -Y,R30
	LDI  R30,LOW(4)
	ST   -Y,R30
	RET

;OPTIMIZER ADDED SUBROUTINE, CALLED 4 TIMES, CODE SIZE REDUCTION:9 WORDS
SUBOPT_0x23:
	CALL _Write_String_6x8
	LDI  R30,LOW(9)
	ST   -Y,R30
	LDI  R30,LOW(6)
	ST   -Y,R30
	RET

;OPTIMIZER ADDED SUBROUTINE, CALLED 4 TIMES, CODE SIZE REDUCTION:6 WORDS
SUBOPT_0x24:
	CALL __GEB12U
	MOV  R0,R30
	LDS  R26,_hour
	RET

;OPTIMIZER ADDED SUBROUTINE, CALLED 2 TIMES, CODE SIZE REDUCTION:13 WORDS
SUBOPT_0x25:
	LDI  R30,LOW(9)
	CALL __LTB12U
	AND  R30,R0
	MOV  R1,R30
	LDS  R26,_hour
	LDI  R30,LOW(18)
	CALL __GTB12U
	MOV  R0,R30
	LDI  R30,LOW(20)
	CALL __LEB12U
	AND  R30,R0
	OR   R30,R1
	RET

;OPTIMIZER ADDED SUBROUTINE, CALLED 2 TIMES, CODE SIZE REDUCTION:1 WORDS
SUBOPT_0x26:
	LDI  R30,LOW(3)
	ST   -Y,R30
	__POINTW2FN _0x0,135
	RJMP SUBOPT_0x21

;OPTIMIZER ADDED SUBROUTINE, CALLED 4 TIMES, CODE SIZE REDUCTION:6 WORDS
SUBOPT_0x27:
	LD   R30,X+
	LD   R31,X+
	ADIW R30,1
	ST   -X,R31
	ST   -X,R30
	RET

;OPTIMIZER ADDED SUBROUTINE, CALLED 2 TIMES, CODE SIZE REDUCTION:3 WORDS
SUBOPT_0x28:
	LDS  R30,_hour
	SUBI R30,-LOW(1)
	STS  _hour,R30
	LDS  R26,_hour
	CPI  R26,LOW(0x18)
	RET

;OPTIMIZER ADDED SUBROUTINE, CALLED 2 TIMES, CODE SIZE REDUCTION:3 WORDS
SUBOPT_0x29:
	LDS  R30,_min
	SUBI R30,-LOW(1)
	STS  _min,R30
	LDS  R26,_min
	CPI  R26,LOW(0x3C)
	RET

;OPTIMIZER ADDED SUBROUTINE, CALLED 2 TIMES, CODE SIZE REDUCTION:2 WORDS
SUBOPT_0x2A:
	STS  _cnt1,R30
	LDI  R30,LOW(0)
	STS  _cnt2,R30
	JMP  _Counter_add

;OPTIMIZER ADDED SUBROUTINE, CALLED 5 TIMES, CODE SIZE REDUCTION:13 WORDS
SUBOPT_0x2B:
	ST   -Y,R18
	LDD  R26,Y+13
	LDD  R27,Y+13+1
	LDD  R30,Y+15
	LDD  R31,Y+15+1
	ICALL
	RET

;OPTIMIZER ADDED SUBROUTINE, CALLED 5 TIMES, CODE SIZE REDUCTION:9 WORDS
SUBOPT_0x2C:
	LDD  R30,Y+16
	LDD  R31,Y+16+1
	SBIW R30,4
	STD  Y+16,R30
	STD  Y+16+1,R31
	RET

;OPTIMIZER ADDED SUBROUTINE, CALLED 3 TIMES, CODE SIZE REDUCTION:3 WORDS
SUBOPT_0x2D:
	LDD  R26,Y+13
	LDD  R27,Y+13+1
	LDD  R30,Y+15
	LDD  R31,Y+15+1
	ICALL
	RET

;OPTIMIZER ADDED SUBROUTINE, CALLED 2 TIMES, CODE SIZE REDUCTION:4 WORDS
SUBOPT_0x2E:
	LDD  R26,Y+16
	LDD  R27,Y+16+1
	ADIW R26,4
	CALL __GETW1P
	STD  Y+6,R30
	STD  Y+6+1,R31
	LDD  R26,Y+6
	LDD  R27,Y+6+1
	RET

;OPTIMIZER ADDED SUBROUTINE, CALLED 2 TIMES, CODE SIZE REDUCTION:2 WORDS
SUBOPT_0x2F:
	LDD  R26,Y+16
	LDD  R27,Y+16+1
	ADIW R26,4
	CALL __GETW1P
	STD  Y+10,R30
	STD  Y+10+1,R31
	RET

;OPTIMIZER ADDED SUBROUTINE, CALLED 2 TIMES, CODE SIZE REDUCTION:1 WORDS
SUBOPT_0x30:
	MOVW R26,R28
	ADIW R26,12
	CALL __ADDW2R15
	CALL __GETW1P
	RET

;OPTIMIZER ADDED SUBROUTINE, CALLED 2 TIMES, CODE SIZE REDUCTION:3 WORDS
SUBOPT_0x31:
	CALL __ADDW2R15
	CALL __GETW1P
	ST   -Y,R31
	ST   -Y,R30
	ST   -Y,R17
	ST   -Y,R16
	RET


	.CSEG
_delay_ms:
	adiw r26,0
	breq __delay_ms1
__delay_ms0:
	__DELAY_USW 0xFA0
	wdr
	sbiw r26,1
	brne __delay_ms0
__delay_ms1:
	ret

__ADDW2R15:
	CLR  R0
	ADD  R26,R15
	ADC  R27,R0
	RET

__ANEGW1:
	NEG  R31
	NEG  R30
	SBCI R31,0
	RET

__CWD1:
	MOV  R22,R31
	ADD  R22,R22
	SBC  R22,R22
	MOV  R23,R22
	RET

__LEB12U:
	CP   R30,R26
	LDI  R30,1
	BRSH __LEB12U1
	CLR  R30
__LEB12U1:
	RET

__GEB12U:
	CP   R26,R30
	LDI  R30,1
	BRSH __GEB12U1
	CLR  R30
__GEB12U1:
	RET

__LTB12U:
	CP   R26,R30
	LDI  R30,1
	BRLO __LTB12U1
	CLR  R30
__LTB12U1:
	RET

__GTB12U:
	CP   R30,R26
	LDI  R30,1
	BRLO __GTB12U1
	CLR  R30
__GTB12U1:
	RET

__EQW12:
	CP   R30,R26
	CPC  R31,R27
	LDI  R30,1
	BREQ __EQW12T
	CLR  R30
__EQW12T:
	RET

__MULW12U:
	MUL  R31,R26
	MOV  R31,R0
	MUL  R30,R27
	ADD  R31,R0
	MUL  R30,R26
	MOV  R30,R0
	ADD  R31,R1
	RET

__MULB1W2U:
	MOV  R22,R30
	MUL  R22,R26
	MOVW R30,R0
	MUL  R22,R27
	ADD  R31,R0
	RET

__DIVW21U:
	CLR  R0
	CLR  R1
	LDI  R25,16
__DIVW21U1:
	LSL  R26
	ROL  R27
	ROL  R0
	ROL  R1
	SUB  R0,R30
	SBC  R1,R31
	BRCC __DIVW21U2
	ADD  R0,R30
	ADC  R1,R31
	RJMP __DIVW21U3
__DIVW21U2:
	SBR  R26,1
__DIVW21U3:
	DEC  R25
	BRNE __DIVW21U1
	MOVW R30,R26
	MOVW R26,R0
	RET

__DIVW21:
	RCALL __CHKSIGNW
	RCALL __DIVW21U
	BRTC __DIVW211
	RCALL __ANEGW1
__DIVW211:
	RET

__MODW21:
	CLT
	SBRS R27,7
	RJMP __MODW211
	COM  R26
	COM  R27
	ADIW R26,1
	SET
__MODW211:
	SBRC R31,7
	RCALL __ANEGW1
	RCALL __DIVW21U
	MOVW R30,R26
	BRTC __MODW212
	RCALL __ANEGW1
__MODW212:
	RET

__CHKSIGNW:
	CLT
	SBRS R31,7
	RJMP __CHKSW1
	RCALL __ANEGW1
	SET
__CHKSW1:
	SBRS R27,7
	RJMP __CHKSW2
	COM  R26
	COM  R27
	ADIW R26,1
	BLD  R0,0
	INC  R0
	BST  R0,0
__CHKSW2:
	RET

__GETW1P:
	LD   R30,X+
	LD   R31,X
	SBIW R26,1
	RET

__GETW1PF:
	LPM  R0,Z+
	LPM  R31,Z
	MOV  R30,R0
	RET

__PUTPARD1:
	ST   -Y,R23
	ST   -Y,R22
	ST   -Y,R31
	ST   -Y,R30
	RET

__SAVELOCR6:
	ST   -Y,R21
__SAVELOCR5:
	ST   -Y,R20
__SAVELOCR4:
	ST   -Y,R19
__SAVELOCR3:
	ST   -Y,R18
__SAVELOCR2:
	ST   -Y,R17
	ST   -Y,R16
	RET

__LOADLOCR6:
	LDD  R21,Y+5
__LOADLOCR5:
	LDD  R20,Y+4
__LOADLOCR4:
	LDD  R19,Y+3
__LOADLOCR3:
	LDD  R18,Y+2
__LOADLOCR2:
	LDD  R17,Y+1
	LD   R16,Y
	RET

;END OF CODE MARKER
__END_OF_CODE:
